 citkUtils

 Timestamp is 5a99d439 (Fri Mar  2 23:46:17 2018)

 Preferred load address is 791e0000

 Start         Length     Name                   Class
 0001:00000000 000007d0H .text$di                CODE
 0001:000007d0 0000bf40H .text$mn                CODE
 0001:0000c710 00000910H .text$x                 CODE
 0001:0000d020 000001feH .text$yd                CODE
 0002:00000000 000006dcH .idata$5                DATA
 0002:000006dc 00000004H .00cfg                  DATA
 0002:000006e0 00000004H .CRT$XCA                DATA
 0002:000006e4 00000054H .CRT$XCU                DATA
 0002:00000738 00000004H .CRT$XCZ                DATA
 0002:0000073c 00000004H .CRT$XIA                DATA
 0002:00000740 00000004H .CRT$XIC                DATA
 0002:00000744 00000004H .CRT$XIZ                DATA
 0002:00000748 00000004H .CRT$XLA                DATA
 0002:0000074c 00000004H .CRT$XLZ                DATA
 0002:00000750 00000004H .CRT$XPA                DATA
 0002:00000754 00000004H .CRT$XPZ                DATA
 0002:00000758 00000004H .CRT$XTA                DATA
 0002:0000075c 00000004H .CRT$XTZ                DATA
 0002:00000760 00000000H .gfids$y                DATA
 0002:00000760 00001388H .rdata                  DATA
 0002:00001ae8 00000018H .rdata$T                DATA
 0002:00001b00 000018b0H .rdata$r                DATA
 0002:000033b0 000000d8H .rdata$sxdata           DATA
 0002:00003488 000003a4H .rdata$zzzdbg           DATA
 0002:0000382c 00000004H .rtc$IAA                DATA
 0002:00003830 00000004H .rtc$IZZ                DATA
 0002:00003834 00000004H .rtc$TAA                DATA
 0002:00003838 00000004H .rtc$TZZ                DATA
 0002:0000383c 00000004H .tls                    DATA
 0002:00003840 00000004H .tls$                   DATA
 0002:00003844 00000004H .tls$ZZZ                DATA
 0002:00003848 00000e68H .xdata$x                DATA
 0002:000046b0 00002060H .edata                  DATA
 0002:00006710 000000dcH .idata$2                DATA
 0002:000067ec 00000014H .idata$3                DATA
 0002:00006800 000006dcH .idata$4                DATA
 0002:00006edc 00004c04H .idata$6                DATA
 0003:00000000 00000080H .data                   DATA
 0003:00000080 00000a50H .data$r                 DATA
 0003:00000ad0 00000690H .bss                    DATA
 0004:00000000 00000060H .rsrc$01                DATA
 0004:00000060 00000180H .rsrc$02                DATA

  Address         Publics by Value              Rva+Base       Lib:Object

 0000:00000000       ___guard_longjmp_count     00000000     <absolute>
 0000:00000000       ___guard_fids_count        00000000     <absolute>
 0000:00000000       ___hybrid_code_map         00000000     <absolute>
 0000:00000000       ___enclave_config          00000000     <absolute>
 0000:00000000       ___guard_longjmp_table     00000000     <absolute>
 0000:00000000       ___guard_iat_table         00000000     <absolute>
 0000:00000000       ___guard_iat_count         00000000     <absolute>
 0000:00000000       ___hybrid_auxiliary_iat    00000000     <absolute>
 0000:00000000       ___dynamic_value_reloc_table 00000000     <absolute>
 0000:00000000       ___guard_fids_table        00000000     <absolute>
 0000:00000000       ___hybrid_code_map_count   00000000     <absolute>
 0000:0000002c       __tls_array                0000002c     <absolute>
 0000:00000036       ___safe_se_handler_count   00000036     <absolute>
 0000:00000100       ___guard_flags             00000100     <absolute>
 0000:00000000       ___ImageBase               791e0000     <linker-defined>
 0001:000007d0       ?GetCD@citkUtils@@UBEPAVClassDesc@citk@@XZ 791e17d0 f i citkUtils.obj
 0001:000007e0       ?GetURL@citkUtils@@UBE?AVString@citkTypes@@XZ 791e17e0 f i citkUtils.obj
 0001:00000810       ??_GcitkUtils@@UAEPAXI@Z   791e1810 f i citkUtils.obj
 0001:00000810       ??_EcitkUtils@@UAEPAXI@Z   791e1810 f i * CIL library *:* CIL module *
 0001:00000840       ?GetPlugInLib@CD_CTToolTip@@UBEPAVCTPlugInLib@citk@@XZ 791e1840 f i citk_ToolTip.obj
 0001:00000840       ?GetPlugInLib@CD_CTPIDController@@UBEPAVCTPlugInLib@citk@@XZ 791e1840 f i citk_PIDController.obj
 0001:00000840       ?GetPlugInLib@CD_CTNoiseTexture@@UBEPAVCTPlugInLib@citk@@XZ 791e1840 f i citk_NoiseTexture.obj
 0001:00000840       ?GetPlugInLib@CD_CTObjectBlinker@@UBEPAVCTPlugInLib@citk@@XZ 791e1840 f i citk_Blinker.obj
 0001:00000840       ?GetPlugInLib@CD_CTMessageHud@@UBEPAVCTPlugInLib@citk@@XZ 791e1840 f i citk_MessageHud.obj
 0001:00000840       ?GetPlugInLib@CD_CTAbstractMaterial@@UBEPAVCTPlugInLib@citk@@XZ 791e1840 f i citk_AbstractMaterials.obj
 0001:00000840       ?GetPlugInLib@CD_citkUtils@@UBEPAVCTPlugInLib@citk@@XZ 791e1840 f i citkUtils.obj
 0001:00000840       ?GetPlugInLib@CD_CT2DFace@@UBEPAVCTPlugInLib@citk@@XZ 791e1840 f i citk_2DFace.obj
 0001:00000840       ?GetPlugInLib@CD_IVTreeProcessor@@UBEPAVCTPlugInLib@citk@@XZ 791e1840 f i citk_Volumes.obj
 0001:00000840       ?GetPlugInLib@CD_CTSoloViewer@@UBEPAVCTPlugInLib@citk@@XZ 791e1840 f i citk_SoloViewer.obj
 0001:00000840       ?GetPlugInLib@CD_CTObjectBlinkerED@@UBEPAVCTPlugInLib@citk@@XZ 791e1840 f i citk_Blinker.obj
 0001:00000840       ?GetPlugInLib@CD_IVPleh@@UBEPAVCTPlugInLib@citk@@XZ 791e1840 f i citk_Volumes.obj
 0001:00000850       _citk_DllMain2             791e1850 f   citkUtils.obj
 0001:00000870       ?RegisterPlugInClasses_citkUtils@@YA_NXZ 791e1870 f   citkUtils.obj
 0001:00000880       ?DoClasses@citkUtils@@UAEXXZ 791e1880 f   citkUtils.obj
 0001:000008f0       ?ThreadProc@DMessageBox@citkTypes@@MAEXPAX@Z 791e18f0 f i citkUtils.obj
 0001:00000990       ??_GDMessageBox@citkTypes@@UAEPAXI@Z 791e1990 f i citkUtils.obj
 0001:00000990       ??_EDMessageBox@citkTypes@@UAEPAXI@Z 791e1990 f i * CIL library *:* CIL module *
 0001:000009c0       _DllMain@12                791e19c0 f   citkUtils.obj
 0001:000009e0       ?citk_assert@@YAXPBD@Z     791e19e0 f   citkUtils.obj
 0001:00000ad0       ?GetID@CR_HBdB@@UBEKXZ     791e1ad0 f i Copyright.obj
 0001:00000ae0       ?GetAuthorName@CR_HBdB@@UBE?AVString@citkTypes@@XZ 791e1ae0 f i Copyright.obj
 0001:00000b10       ?GetEmail@CR_HBdB@@UBE?AVString@citkTypes@@XZ 791e1b10 f i Copyright.obj
 0001:00000b40       ?GetCompanyName@CR_HBdB@@UBE?AVString@citkTypes@@XZ 791e1b40 f i Copyright.obj
 0001:00000b70       ?GetURL@CR_HBdB@@UBE?AVString@citkTypes@@XZ 791e1b70 f i Copyright.obj
 0001:00000ba0       ??0DAxisTracker@@QAE@ABV0@@Z 791e1ba0 f i citk_AxisTracker.obj
 0001:00000bf0       ??4DAxisTracker@@QAEAAV0@ABV0@@Z 791e1bf0 f i citk_AxisTracker.obj
 0001:00000c20       ??0DAxisTracker@@QAE@XZ    791e1c20 f   citk_AxisTracker.obj
 0001:00000c50       ??1DAxisTracker@@QAE@XZ    791e1c50 f   citk_AxisTracker.obj
 0001:00000d30       ?Init@DAxisTracker@@QAEXMM@Z 791e1d30 f   citk_AxisTracker.obj
 0001:00000e00       ?Update@DAxisTracker@@QAE_NMM@Z 791e1e00 f   citk_AxisTracker.obj
 0001:00001000       ?CalcAverage@DAxisTracker@@QAEMM@Z 791e2000 f   citk_AxisTracker.obj
 0001:00001060       ??$AddFrom@$00@?$Array@PAUmeas_t@DAxisTracker@@$00@citkTypes@@QAEXABV01@@Z 791e2060 f i citk_AxisTracker.obj
 0001:000010e0       ?GetCD@CTNoiseTexture@@UBEPAVClassDesc@citk@@XZ 791e20e0 f i citk_NoiseTexture.obj
 0001:000010f0       ?HandlesProtocol@CTNoiseTexture@@UBE_NPBD@Z 791e20f0 f i citk_NoiseTexture.obj
 0001:00001110       ?Create@CD_CTNoiseTexture@@UAEPAXXZ 791e2110 f i citk_NoiseTexture.obj
 0001:00001180       ?Delete@CD_CTMessageHud@@UAEXPAX@Z 791e2180 f i citk_MessageHud.obj
 0001:00001180       ?Delete@CD_CTNoiseTexture@@UAEXPAX@Z 791e2180 f i citk_NoiseTexture.obj
 0001:00001180       ?Delete@CD_CT2DFace@@UAEXPAX@Z 791e2180 f i citk_2DFace.obj
 0001:00001180       ?Delete@CD_CTAbstractMaterial@@UAEXPAX@Z 791e2180 f i citk_AbstractMaterials.obj
 0001:00001180       ?Delete@CD_IVPleh@@UAEXPAX@Z 791e2180 f i citk_Volumes.obj
 0001:00001180       ?Delete@CD_IVTreeProcessor@@UAEXPAX@Z 791e2180 f i citk_Volumes.obj
 0001:00001180       ?Delete@CD_CTObjectBlinkerED@@UAEXPAX@Z 791e2180 f i citk_Blinker.obj
 0001:00001180       ?Delete@CD_CTToolTip@@UAEXPAX@Z 791e2180 f i citk_ToolTip.obj
 0001:00001180       ?Delete@CD_CTPIDController@@UAEXPAX@Z 791e2180 f i citk_PIDController.obj
 0001:00001180       ?Delete@CD_CTObjectBlinker@@UAEXPAX@Z 791e2180 f i citk_Blinker.obj
 0001:00001180       ?Delete@CD_CTSoloViewer@@UAEXPAX@Z 791e2180 f i citk_SoloViewer.obj
 0001:00001190       ??_GCTNoiseTexture@@UAEPAXI@Z 791e2190 f i citk_NoiseTexture.obj
 0001:00001190       ??_ECTNoiseTexture@@UAEPAXI@Z 791e2190 f i * CIL library *:* CIL module *
 0001:000011c0       ?DoImport@CTNoiseTexture@@MAE_NPBD@Z 791e21c0 f   citk_NoiseTexture.obj
 0001:00001390       ___local_stdio_scanf_options 791e2390 f i citk_NoiseTexture.obj
 0001:000013a0       _sscanf                    791e23a0 f i citk_NoiseTexture.obj
 0001:000013d0       ?GetClassDesc_CTPIDController@@YAPAVClassDesc@citk@@XZ 791e23d0 f i citk_PIDController.obj
 0001:000013d0       ?GetCD@CTPIDController@citk@@UBEPAVClassDesc@2@XZ 791e23d0 f i citk_PIDController.obj
 0001:000013d0       ?_CD@CTPIDController@citk@@SAPAVClassDesc@2@XZ 791e23d0 f i citk_PIDController.obj
 0001:000013e0       ??1CTPIDController@citk@@UAE@XZ 791e23e0 f i citk_PIDController.obj
 0001:000013f0       ??_ECTPIDController@citk@@UAEPAXI@Z 791e23f0 f i citk_PIDController.obj
 0001:00001490       ?Create@CD_CTPIDController@@UAEPAXXZ 791e2490 f i citk_PIDController.obj
 0001:00001520       ??0CTPIDController@citk@@QAE@XZ 791e2520 f   citk_PIDController.obj
 0001:00001580       ?DoAddProperties@CTPIDController@citk@@MAEXXZ 791e2580 f   citk_PIDController.obj
 0001:00001640       ?Reset@CTPIDController@citk@@UAEXXZ 791e2640 f   citk_PIDController.obj
 0001:00001660       ?SetActuatorBounds@CTPIDController@citk@@QAEXNN@Z 791e2660 f   citk_PIDController.obj
 0001:00001690       ?SetPID@CTPIDController@citk@@QAEXNNN@Z 791e2690 f   citk_PIDController.obj
 0001:000016d0       ?GetActuatorValue@CTPIDController@citk@@QAENNNN@Z 791e26d0 f   citk_PIDController.obj
 0001:000017b0       ?WriteToStream@CTPIDController@citk@@UAEXPAVCTStream@2@K@Z 791e27b0 f   citk_PIDController.obj
 0001:00001880       ?ProcessChunk@CTPIDController@citk@@UAE_NPAVCTStream@2@K@Z 791e2880 f   citk_PIDController.obj
 0001:00001910       ??RDProfiler@citk@@QAEJPBD@Z 791e2910 f i citk_Profiler.obj
 0001:00001920       ?CheckPoint@DProfiler@citk@@QAEJPBD@Z 791e2920 f i citk_Profiler.obj
 0001:00001a50       ??0DProfiler@citk@@QAE@ABV01@@Z 791e2a50 f i citk_Profiler.obj
 0001:00001aa0       ??4DProfiler@citk@@QAEAAV01@ABV01@@Z 791e2aa0 f i citk_Profiler.obj
 0001:00001af0       ??0DProfiler@citk@@QAE@PBD@Z 791e2af0 f   citk_Profiler.obj
 0001:00001cf0       ??1DProfiler@citk@@QAE@XZ  791e2cf0 f   citk_Profiler.obj
 0001:00001ee0       ?OnDelete@?$SafePtr@VCTTimer@citk@@@citk@@UAEXPAVCTAggregated@2@@Z 791e2ee0 f i citk_Profiler.obj
 0001:00001ee0       ?OnDelete@?$SafePtr@VCTEntity@citk@@@citk@@UAEXPAVCTAggregated@2@@Z 791e2ee0 f i citk_2DFace.obj
 0001:00001ee0       ?OnDelete@?$SafePtr@VCTRenderTarget@citk@@@citk@@UAEXPAVCTAggregated@2@@Z 791e2ee0 f i citk_Snapper.obj
 0001:00001ef0       ?GetTarget@?$SafePtr@VCTRenderTarget@citk@@@citk@@UBEPAVCTAggregated@2@XZ 791e2ef0 f i citk_Snapper.obj
 0001:00001ef0       ?GetTarget@?$SafePtr@VCTTimer@citk@@@citk@@UBEPAVCTAggregated@2@XZ 791e2ef0 f i citk_Profiler.obj
 0001:00001ef0       ?GetTarget@?$SafePtr@VCTEntity@citk@@@citk@@UBEPAVCTAggregated@2@XZ 791e2ef0 f i citk_2DFace.obj
 0001:00001f00       ??1?$DevicePtr@VCTTimer@citk@@$00@citk@@QAE@XZ 791e2f00 f i citk_Profiler.obj
 0001:00001f60       ??_G?$SafePtr@VCTTimer@citk@@@citk@@UAEPAXI@Z 791e2f60 f i citk_Profiler.obj
 0001:00001f60       ??_E?$SafePtr@VCTTimer@citk@@@citk@@UAEPAXI@Z 791e2f60 f i * CIL library *:* CIL module *
 0001:00001fd0       ??1DynString@citkTypes@@QAE@XZ 791e2fd0 f i citk_Profiler.obj
 0001:00001fe0       ??0DSnapper@@QAE@ABV0@@Z   791e2fe0 f i citk_Snapper.obj
 0001:000020c0       ??4DSnapper@@QAEAAV0@ABV0@@Z 791e30c0 f i citk_Snapper.obj
 0001:00002160       ??_FDSnapper@@QAEXXZ       791e3160 f i citk_Snapper.obj
 0001:00002170       ??0DSnapper@@QAE@PBD@Z     791e3170 f   citk_Snapper.obj
 0001:000022b0       ?Init@DSnapper@@QAEXPBDPAVCTRenderTarget@citk@@M@Z 791e32b0 f   citk_Snapper.obj
 0001:000023c0       ??1?$ServicePtr@VCTEngineManager@citk@@@citk@@QAE@XZ 791e33c0 f i citk_Snapper.obj
 0001:00002400       ??1DSnapper@@QAE@XZ        791e3400 f   citk_Snapper.obj
 0001:000024f0       ?Snap@DSnapper@@QAEXXZ     791e34f0 f   citk_Snapper.obj
 0001:00002590       ??1?$SafePtr@VCTRenderTarget@citk@@@citk@@UAE@XZ 791e3590 f i citk_Snapper.obj
 0001:000025e0       ??C?$ServicePtr@VCTEngineManager@citk@@@citk@@QAEPAVCTEngineManager@1@XZ 791e35e0 f i citk_Snapper.obj
 0001:00002650       ??1?$StrongPtr@VCTGroup@citk@@@citk@@QAE@XZ 791e3650 f i citk_Blinker.obj
 0001:00002650       ??1?$StrongPtr@VCTGeometry@citk@@@citk@@QAE@XZ 791e3650 f i citk_Blinker.obj
 0001:00002650       ??1?$StrongPtr@VCTMaterialProperty@citk@@@citk@@QAE@XZ 791e3650 f i citk_AbstractMaterials.obj
 0001:00002650       ??1?$StrongPtr@VCTLight@citk@@@citk@@QAE@XZ 791e3650 f i citk_SoloViewer.obj
 0001:00002650       ??1?$StrongPtr@VCTTextureProperty@citk@@@citk@@QAE@XZ 791e3650 f i citk_ToolTip.obj
 0001:00002650       ??1?$StrongPtr@VCTRenderState@citk@@@citk@@QAE@XZ 791e3650 f i citk_AbstractMaterials.obj
 0001:00002650       ??1?$StrongPtr@VCTBitmapImport@citk@@@citk@@QAE@XZ 791e3650 f i citk_ToolTip.obj
 0001:00002650       ??1?$StrongPtr@VCTObjectBlinkerED@@@citk@@QAE@XZ 791e3650 f i citk_Blinker.obj
 0001:00002650       ??1?$StrongPtr@VCTShape@citk@@@citk@@QAE@XZ 791e3650 f i citk_SoloViewer.obj
 0001:00002650       ??1?$StrongPtr@VCTBitmapExport@citk@@@citk@@QAE@XZ 791e3650 f i citk_Snapper.obj
 0001:00002650       ??1?$StrongPtr@VCTVertexData@citk@@@citk@@QAE@XZ 791e3650 f i citk_2DFace.obj
 0001:00002650       ??1?$StrongPtr@VCTTexture@citk@@@citk@@QAE@XZ 791e3650 f i citk_Snapper.obj
 0001:00002650       ??1?$StrongPtr@VCTAlphaProperty@citk@@@citk@@QAE@XZ 791e3650 f i citk_2DFace.obj
 0001:00002650       ??1?$StrongPtr@VCTRenderFlagsProperty@citk@@@citk@@QAE@XZ 791e3650 f i citk_2DFace.obj
 0001:00002650       ??1?$StrongPtr@VIVPleh@@@citk@@QAE@XZ 791e3650 f i citk_Volumes.obj
 0001:00002650       ??1?$StrongPtr@VCTAbstractMaterial@@@citk@@QAE@XZ 791e3650 f i citk_AbstractMaterials.obj
 0001:00002650       ??1?$StrongPtr@VCTBox@citk@@@citk@@QAE@XZ 791e3650 f i citk_Blinker.obj
 0001:00002650       ??1?$StrongPtr@VCT3DText@citk@@@citk@@QAE@XZ 791e3650 f i citk_MessageHud.obj
 0001:00002650       ??1?$StrongPtr@VCTEntity@citk@@@citk@@QAE@XZ 791e3650 f i citk_SoloViewer.obj
 0001:00002650       ??1?$StrongPtr@VCTWireFrameProperty@citk@@@citk@@QAE@XZ 791e3650 f i citk_Blinker.obj
 0001:00002690       ??_G?$SafePtr@VCTRenderTarget@citk@@@citk@@UAEPAXI@Z 791e3690 f i citk_Snapper.obj
 0001:00002690       ??_E?$SafePtr@VCTRenderTarget@citk@@@citk@@UAEPAXI@Z 791e3690 f i * CIL library *:* CIL module *
 0001:00002700       ?New@?$StrongPtr@VCTTexture@citk@@@citk@@QAEPAVCTTexture@2@XZ 791e3700 f i citk_Snapper.obj
 0001:000027a0       ??_ECTTexture@citk@@MAEPAXI@Z 791e37a0 f i * CIL library *:* CIL module *
 0001:000027a0       ??_GCTTexture@citk@@MAEPAXI@Z 791e37a0 f i citk_Snapper.obj
 0001:000027d0       ?GetClassDesc_CT2DFace@@YAPAVClassDesc@citk@@XZ 791e37d0 f i citk_2DFace.obj
 0001:000027d0       ?_CD@CT2DFace@@SAPAVClassDesc@citk@@XZ 791e37d0 f i citk_2DFace.obj
 0001:000027d0       ?GetCD@CT2DFace@@UBEPAVClassDesc@citk@@XZ 791e37d0 f i citk_2DFace.obj
 0001:000027e0       ??1CT2DFace@@UAE@XZ        791e37e0 f i citk_2DFace.obj
 0001:00002890       ??_ECT2DFace@@UAEPAXI@Z    791e3890 f i citk_2DFace.obj
 0001:00002930       ?Create@CD_CT2DFace@@UAEPAXXZ 791e3930 f i citk_2DFace.obj
 0001:00002980       ??0CT2DFace@@QAE@XZ        791e3980 f   citk_2DFace.obj
 0001:00002c40       ?Copy@CT2DFace@@UBEPAVCTEntity@citk@@XZ 791e3c40 f   citk_2DFace.obj
 0001:00002c90       ??0CT2DFace@@QAE@PBV0@@Z   791e3c90 f   citk_2DFace.obj
 0001:00002e10       ?AutoUpdate@CT2DFace@@QAAXJ@Z 791e3e10 f   citk_2DFace.obj
 0001:00002e40       ?Animate@CT2DFace@@QAEXN@Z 791e3e40 f   citk_2DFace.obj
 0001:00002ee0       ?Process@CT2DFace@@UAEXAAUProcessInfo_t@citk@@@Z 791e3ee0 f   citk_2DFace.obj
 0001:00003310       ?UpdateVD@CT2DFace@@UAEXXZ 791e4310 f   citk_2DFace.obj
 0001:00003550       ?SetAuto3DPos@CT2DFace@@QAEXABVVector3@citkTypes@@_NPAVCTEntity@citk@@M@Z 791e4550 f   citk_2DFace.obj
 0001:000035d0       ?StopAuto3DPos@CT2DFace@@QAEXXZ 791e45d0 f   citk_2DFace.obj
 0001:000035e0       ?SetAutoPos@CT2DFace@@QAEXHHW4rel_t@1@0@Z 791e45e0 f   citk_2DFace.obj
 0001:00003620       ?StopAutoPos@CT2DFace@@QAEXXZ 791e4620 f   citk_2DFace.obj
 0001:00003630       ?SetAutoSize@CT2DFace@@QAEXHH@Z 791e4630 f   citk_2DFace.obj
 0001:00003650       ?StopAutoSize@CT2DFace@@QAEXXZ 791e4650 f   citk_2DFace.obj
 0001:00003660       ?UpdateBoundingVolume@CT2DFace@@UAEPAVCTShape@citk@@W4kind_t@CTProcess@3@@Z 791e4660 f   citk_2DFace.obj
 0001:00003670       ?New@?$StrongPtr@VCTRenderState@citk@@@citk@@QAEPAVCTRenderState@2@XZ 791e4670 f i citk_2DFace.obj
 0001:00003700       ?New@?$StrongPtr@VCTVertexData@citk@@@citk@@QAEPAVCTVertexData@2@XZ 791e4700 f i citk_2DFace.obj
 0001:000037a0       ??_ECTRenderFlagsProperty@citk@@UAEPAXI@Z 791e47a0 f i * CIL library *:* CIL module *
 0001:000037a0       ??_GCTRenderFlagsProperty@citk@@UAEPAXI@Z 791e47a0 f i citk_2DFace.obj
 0001:000037d0       ??_GCTAlphaProperty@citk@@UAEPAXI@Z 791e47d0 f i citk_2DFace.obj
 0001:000037d0       ??_ECTAlphaProperty@citk@@UAEPAXI@Z 791e47d0 f i * CIL library *:* CIL module *
 0001:00003800       ??_GCTRenderState@citk@@MAEPAXI@Z 791e4800 f i citk_2DFace.obj
 0001:00003800       ??_ECTRenderState@citk@@MAEPAXI@Z 791e4800 f i * CIL library *:* CIL module *
 0001:00003830       ??_ECTVertexData@citk@@UAEPAXI@Z 791e4830 f i * CIL library *:* CIL module *
 0001:00003830       ??_GCTVertexData@citk@@UAEPAXI@Z 791e4830 f i citk_2DFace.obj
 0001:00003860       ??_E?$SafePtr@VCTEntity@citk@@@citk@@UAEPAXI@Z 791e4860 f i * CIL library *:* CIL module *
 0001:00003860       ??_G?$SafePtr@VCTEntity@citk@@@citk@@UAEPAXI@Z 791e4860 f i citk_2DFace.obj
 0001:000038d0       ??1?$SafePtr@VCTEntity@citk@@@citk@@UAE@XZ 791e48d0 f i citk_2DFace.obj
 0001:00003920       ?GetCD@CTAbstractMaterial@@UBEPAVClassDesc@citk@@XZ 791e4920 f i citk_AbstractMaterials.obj
 0001:00003920       ?_CD@CTAbstractMaterial@@SAPAVClassDesc@citk@@XZ 791e4920 f i citk_AbstractMaterials.obj
 0001:00003920       ?GetClassDesc_CTAbstractMaterial@@YAPAVClassDesc@citk@@XZ 791e4920 f i citk_AbstractMaterials.obj
 0001:00003930       ?GetInstances@CTAbstractMaterial@@QBEABV?$ArrayPtr@VCTAbstractMaterial@@@citkTypes@@XZ 791e4930 f i citk_AbstractMaterials.obj
 0001:00003940       ?IsDefaultAbstract@CTAbstractMaterial@@SA_NXZ 791e4940 f i citk_AbstractMaterials.obj
 0001:00003950       ??_ECTAbstractMaterial@@MAEPAXI@Z 791e4950 f i citk_AbstractMaterials.obj
 0001:000039f0       ?Create@CD_CTAbstractMaterial@@UAEPAXXZ 791e49f0 f i citk_AbstractMaterials.obj
 0001:00003a40       ??0CTAbstractMaterial@@QAE@XZ 791e4a40 f   citk_AbstractMaterials.obj
 0001:00003b10       ??1CTAbstractMaterial@@MAE@XZ 791e4b10 f   citk_AbstractMaterials.obj
 0001:00003ba0       ?CreateFor@CTAbstractMaterial@@SAPAV1@PAVCTEntity@citk@@ABUDColor@citkTypes@@@Z 791e4ba0 f   citk_AbstractMaterials.obj
 0001:00003d10       ?Abstract@CTAbstractMaterial@@SAXPAVCTEntity@citk@@@Z 791e4d10 f   citk_AbstractMaterials.obj
 0001:00003da0       ?Orig@CTAbstractMaterial@@SAXPAVCTEntity@citk@@@Z 791e4da0 f   citk_AbstractMaterials.obj
 0001:00003e30       ?AbstractAll@CTAbstractMaterial@@SAXXZ 791e4e30 f   citk_AbstractMaterials.obj
 0001:00003eb0       ?OrigAll@CTAbstractMaterial@@SAXXZ 791e4eb0 f   citk_AbstractMaterials.obj
 0001:00003f30       ?DefaultAll@CTAbstractMaterial@@SAXXZ 791e4f30 f   citk_AbstractMaterials.obj
 0001:00004010       ?Abstract@CTAbstractMaterial@@QAEXXZ 791e5010 f   citk_AbstractMaterials.obj
 0001:00004060       ?Default@CTAbstractMaterial@@QAEXXZ 791e5060 f   citk_AbstractMaterials.obj
 0001:000040f0       ?Orig@CTAbstractMaterial@@QAEXXZ 791e50f0 f   citk_AbstractMaterials.obj
 0001:00004140       ?New@?$StrongPtr@VCTMaterialProperty@citk@@@citk@@QAEPAVCTMaterialProperty@2@XZ 791e5140 f i citk_AbstractMaterials.obj
 0001:000041d0       ??_ECTMaterialProperty@citk@@UAEPAXI@Z 791e51d0 f i * CIL library *:* CIL module *
 0001:000041d0       ??_GCTMaterialProperty@citk@@UAEPAXI@Z 791e51d0 f i citk_AbstractMaterials.obj
 0001:00004200       ?_CD@CTObjectBlinker@@SAPAVClassDesc@citk@@XZ 791e5200 f i citk_Blinker.obj
 0001:00004200       ?GetClassDesc_CTObjectBlinker@@YAPAVClassDesc@citk@@XZ 791e5200 f i citk_Blinker.obj
 0001:00004200       ?GetCD@CTObjectBlinker@@UBEPAVClassDesc@citk@@XZ 791e5200 f i citk_Blinker.obj
 0001:00004210       ?GetBlinkerRS@CTObjectBlinker@@QBEPAVCTRenderState@citk@@XZ 791e5210 f i citk_Blinker.obj
 0001:00004220       ??_ECTObjectBlinker@@MAEPAXI@Z 791e5220 f i citk_Blinker.obj
 0001:00004300       ?Create@CD_CTObjectBlinker@@UAEPAXXZ 791e5300 f i citk_Blinker.obj
 0001:00004350       ?GetCD@CTObjectBlinkerED@@UBEPAVClassDesc@citk@@XZ 791e5350 f i citk_Blinker.obj
 0001:00004350       ?GetClassDesc_CTObjectBlinkerED@@YAPAVClassDesc@citk@@XZ 791e5350 f i citk_Blinker.obj
 0001:00004350       ?_CD@CTObjectBlinkerED@@SAPAVClassDesc@citk@@XZ 791e5350 f i citk_Blinker.obj
 0001:00004360       ??0CTObjectBlinkerED@@QAE@XZ 791e5360 f i citk_Blinker.obj
 0001:000043a0       ??1CTObjectBlinkerED@@UAE@XZ 791e53a0 f i citk_Blinker.obj
 0001:000043c0       ??_ECTObjectBlinkerED@@UAEPAXI@Z 791e53c0 f i citk_Blinker.obj
 0001:00004470       ?Create@CD_CTObjectBlinkerED@@UAEPAXXZ 791e5470 f i citk_Blinker.obj
 0001:000044f0       ??0CTObjectBlinker@@QAE@XZ 791e54f0 f   citk_Blinker.obj
 0001:000046d0       ??1?$DTreeClassIterator@VCTGeometry@citk@@@citk@@QAE@XZ 791e56d0 f i citk_Volumes.obj
 0001:000046d0       ??1?$ArrayPtr@VCTGeometry@citk@@@citkTypes@@QAE@XZ 791e56d0 f i citk_Volumes.obj
 0001:000046d0       ??1?$ArrayPtr@Uedge@@@citkTypes@@QAE@XZ 791e56d0 f i citk_Volumes.obj
 0001:000046d0       ??1?$ArrayPtr@Uactualblinker_t@CTObjectBlinker@@@citkTypes@@QAE@XZ 791e56d0 f i citk_Blinker.obj
 0001:000046d0       ??1?$ArrayPtr@Ucircle@@@citkTypes@@QAE@XZ 791e56d0 f i citk_Volumes.obj
 0001:000046e0       ??1CTObjectBlinker@@MAE@XZ 791e56e0 f   citk_Blinker.obj
 0001:00004760       ?CreatePivot@CTObjectBlinker@@CAXXZ 791e5760 f   citk_Blinker.obj
 0001:00004b80       ?Clear@CTObjectBlinker@@QAEXXZ 791e5b80 f   citk_Blinker.obj
 0001:00004d40       ?GetBlinker@CTObjectBlinker@@SAPAV1@PAVCTEntity@citk@@@Z 791e5d40 f   citk_Blinker.obj
 0001:00004dd0       ?OnDelete@CTObjectBlinker@@UAEXPAVCTAggregated@citk@@@Z 791e5dd0 f   citk_Blinker.obj
 0001:00004f60       ?SetObject@CTObjectBlinker@@QAE_NPAVCTEntity@citk@@ABUDColor@citkTypes@@_N2@Z 791e5f60 f   citk_Blinker.obj
 0001:00005280       ?AddActualBlinker@CTObjectBlinker@@AAEXPAVCTEntity@citk@@_N1@Z 791e6280 f   citk_Blinker.obj
 0001:000055e0       ?DoBlink@CTObjectBlinker@@AAAXJ@Z 791e65e0 f   citk_Blinker.obj
 0001:00005790       ?GetEntity@CTObjectBlinker@@QBEPAVCTEntity@citk@@XZ 791e6790 f   citk_Blinker.obj
 0001:000057a0       ?Pause@CTObjectBlinker@@AAEXXZ 791e67a0 f   citk_Blinker.obj
 0001:00005800       ?IsHighlit@CTObjectBlinker@@QBE_NXZ 791e6800 f   citk_Blinker.obj
 0001:00005840       ?New@?$StrongPtr@VCTGeometry@citk@@@citk@@QAEPAVCTGeometry@2@XZ 791e6840 f i citk_Blinker.obj
 0001:000058e0       ?RemoveEvery@?$ArrayPtr@VCTObjectBlinker@@@citkTypes@@QAEIQAVCTObjectBlinker@@@Z 791e68e0 f i citk_Blinker.obj
 0001:00005920       ??_ECTGeometry@citk@@UAEPAXI@Z 791e6920 f i * CIL library *:* CIL module *
 0001:00005920       ??_GCTGeometry@citk@@UAEPAXI@Z 791e6920 f i citk_Blinker.obj
 0001:00005950       ??_GCTWireFrameProperty@citk@@UAEPAXI@Z 791e6950 f i citk_Blinker.obj
 0001:00005950       ??_ECTWireFrameProperty@citk@@UAEPAXI@Z 791e6950 f i * CIL library *:* CIL module *
 0001:00005980       ?Length@Vector3@citkTypes@@QBEMXZ 791e6980 f i citk_Blinker.obj
 0001:000059c0       ?GetCD@CTMessageHud@@UBEPAVClassDesc@citk@@XZ 791e69c0 f i citk_MessageHud.obj
 0001:000059c0       ?_CD@CTMessageHud@@SAPAVClassDesc@citk@@XZ 791e69c0 f i citk_MessageHud.obj
 0001:000059c0       ?GetClassDesc_CTMessageHud@@YAPAVClassDesc@citk@@XZ 791e69c0 f i citk_MessageHud.obj
 0001:000059d0       ?AddLine@CTMessageHud@@QAEXPBD@Z 791e69d0 f i citk_MessageHud.obj
 0001:000059f0       ?AddLine@CTMessageHud@@QAEXPBD0@Z 791e69f0 f i citk_MessageHud.obj
 0001:00005a10       ??_ECTMessageHud@@EAEPAXI@Z 791e6a10 f i citk_MessageHud.obj
 0001:00005ab0       ?Create@CD_CTMessageHud@@UAEPAXXZ 791e6ab0 f i citk_MessageHud.obj
 0001:00005b00       ??0CTMessageHud@@QAE@XZ    791e6b00 f   citk_MessageHud.obj
 0001:00005ca0       ??1CTMessageHud@@EAE@XZ    791e6ca0 f   citk_MessageHud.obj
 0001:00005df0       ?Process@CTMessageHud@@UAEXAAUProcessInfo_t@citk@@@Z 791e6df0 f   citk_MessageHud.obj
 0001:00005e40       ?Init@CTMessageHud@@QAEXXZ 791e6e40 f   citk_MessageHud.obj
 0001:00005e70       ?Animate@CTMessageHud@@AAAXJ@Z 791e6e70 f   citk_MessageHud.obj
 0001:00006160       ?AddLine@CTMessageHud@@QAEXPBD0ABUDColor@citkTypes@@@Z 791e7160 f   citk_MessageHud.obj
 0001:00006340       ?AddLine@CTMessageHud@@QAEXPBDABUDColor@citkTypes@@@Z 791e7340 f   citk_MessageHud.obj
 0001:000063c0       ?_AddLine@CTMessageHud@@AAEXPBDABUDColor@citkTypes@@@Z 791e73c0 f   citk_MessageHud.obj
 0001:00006580       ?UpdateItem@CTMessageHud@@AAEXHM@Z 791e7580 f   citk_MessageHud.obj
 0001:00006630       ?GetText@CTMessageHud@@AAEPAVCT3DText@citk@@XZ 791e7630 f   citk_MessageHud.obj
 0001:00006800       ?FifoPush@CTMessageHud@@AAEXPBDABUDColor@citkTypes@@@Z 791e7800 f   citk_MessageHud.obj
 0001:00006950       ?FifoPop@CTMessageHud@@AAE_NAAVString@citkTypes@@AAUDColor@3@@Z 791e7950 f   citk_MessageHud.obj
 0001:000069d0       ??1?$StrongArray@VCT3DText@citk@@@citk@@QAE@XZ 791e79d0 f i citk_MessageHud.obj
 0001:00006a60       ??_ECT3DText@citk@@MAEPAXI@Z 791e7a60 f i * CIL library *:* CIL module *
 0001:00006a60       ??_GCT3DText@citk@@MAEPAXI@Z 791e7a60 f i citk_MessageHud.obj
 0001:00006a90       ?_CD@CTSoloViewer@@SAPAVClassDesc@citk@@XZ 791e7a90 f i citk_SoloViewer.obj
 0001:00006a90       ?GetCD@CTSoloViewer@@UBEPAVClassDesc@citk@@XZ 791e7a90 f i citk_SoloViewer.obj
 0001:00006a90       ?GetClassDesc_CTSoloViewer@@YAPAVClassDesc@citk@@XZ 791e7a90 f i citk_SoloViewer.obj
 0001:00006aa0       ??0CTSoloViewer@@QAE@XZ    791e7aa0 f i citk_SoloViewer.obj
 0001:00006ae0       ??1CTSoloViewer@@UAE@XZ    791e7ae0 f i citk_SoloViewer.obj
 0001:00006b70       ??_ECTSoloViewer@@UAEPAXI@Z 791e7b70 f i citk_SoloViewer.obj
 0001:00006c10       ?Create@CD_CTSoloViewer@@UAEPAXXZ 791e7c10 f i citk_SoloViewer.obj
 0001:00006c90       ?Init@CTSoloViewer@@QAEXPAVCTEntity@citk@@MMM@Z 791e7c90 f   citk_SoloViewer.obj
 0001:00007230       ?GetCamera@CTSoloViewer@@QBEPAVCTCamera@citk@@PAV23@@Z 791e8230 f   citk_SoloViewer.obj
 0001:00007250       ?New@?$StrongPtr@VCTGroup@citk@@@citk@@QAEPAVCTGroup@2@XZ 791e8250 f i citk_SoloViewer.obj
 0001:000072f0       ?New@?$StrongPtr@VCTLight@citk@@@citk@@QAEPAVCTLight@2@XZ 791e82f0 f i citk_SoloViewer.obj
 0001:00007390       ??_GCTGroup@citk@@MAEPAXI@Z 791e8390 f i citk_SoloViewer.obj
 0001:00007390       ??_ECTGroup@citk@@MAEPAXI@Z 791e8390 f i * CIL library *:* CIL module *
 0001:000073c0       ??_ECTCamera@citk@@UAEPAXI@Z 791e83c0 f i * CIL library *:* CIL module *
 0001:000073c0       ??_GCTCamera@citk@@UAEPAXI@Z 791e83c0 f i citk_SoloViewer.obj
 0001:000073f0       ??_ECTLight@citk@@MAEPAXI@Z 791e83f0 f i * CIL library *:* CIL module *
 0001:000073f0       ??_GCTLight@citk@@MAEPAXI@Z 791e83f0 f i citk_SoloViewer.obj
 0001:00007420       ??_ECTMotionController@citk@@UAEPAXI@Z 791e8420 f i * CIL library *:* CIL module *
 0001:00007420       ??_GCTMotionController@citk@@UAEPAXI@Z 791e8420 f i citk_SoloViewer.obj
 0001:00007450       ?GetCD@CTToolTip@@UBEPAVClassDesc@citk@@XZ 791e8450 f i citk_ToolTip.obj
 0001:00007450       ?_CD@CTToolTip@@SAPAVClassDesc@citk@@XZ 791e8450 f i citk_ToolTip.obj
 0001:00007450       ?GetClassDesc_CTToolTip@@YAPAVClassDesc@citk@@XZ 791e8450 f i citk_ToolTip.obj
 0001:00007460       ??1CTToolTip@@UAE@XZ       791e8460 f i citk_ToolTip.obj
 0001:00007500       ??_ECTToolTip@@UAEPAXI@Z   791e8500 f i citk_ToolTip.obj
 0001:000075a0       ?Create@CD_CTToolTip@@UAEPAXXZ 791e85a0 f i citk_ToolTip.obj
 0001:000075f0       ??0CTToolTip@@QAE@XZ       791e85f0 f   citk_ToolTip.obj
 0001:00007710       ?Copy@CTToolTip@@UBEPAVCTEntity@citk@@XZ 791e8710 f   citk_ToolTip.obj
 0001:00007760       ??0CTToolTip@@QAE@PBV0@@Z  791e8760 f   citk_ToolTip.obj
 0001:00007840       ?SetFont@CTToolTip@@QAEXPBDH@Z 791e8840 f   citk_ToolTip.obj
 0001:00007930       ?SetText@CTToolTip@@QAEXPBD@Z 791e8930 f   citk_ToolTip.obj
 0001:00007a30       ?Process@CTToolTip@@UAEXAAUProcessInfo_t@citk@@@Z 791e8a30 f   citk_ToolTip.obj
 0001:00007fc0       ??_GDBitmap@citkTypes@@QAEPAXI@Z 791e8fc0 f i citk_ToolTip.obj
 0001:00008030       ?UpdateVD@CTToolTip@@UAEXXZ 791e9030 f   citk_ToolTip.obj
 0001:00008190       ??_ECTTextureProperty@citk@@UAEPAXI@Z 791e9190 f i * CIL library *:* CIL module *
 0001:00008190       ??_GCTTextureProperty@citk@@UAEPAXI@Z 791e9190 f i citk_ToolTip.obj
 0001:000081c0       ?Last@circle@@QAEGXZ       791e91c0 f   citk_Volumes.obj
 0001:000081e0       ?AddFrom@circle@@QAE_NAAV?$ArrayPtr@Uedge@@@citkTypes@@@Z 791e91e0 f   citk_Volumes.obj
 0001:00008340       ?CalcVolumeSmart@@YAMPAVCTVertexData@citk@@@Z 791e9340 f   citk_Volumes.obj
 0001:00008d60       ?CalcVolume@circle@@QAEMPBVVector3@citkTypes@@@Z 791e9d60 f   citk_Volumes.obj
 0001:00009050       ??1?$ArrayVal@G$0A@@citkTypes@@QAE@XZ 791ea050 f i citk_Volumes.obj
 0001:00009060       ?CalcVolume@@YAMPAVCTVertexData@citk@@@Z 791ea060 f   citk_Volumes.obj
 0001:00009270       ?CalcVolume@@YAMPAVCTGeometry@citk@@@Z 791ea270 f   citk_Volumes.obj
 0001:000092c0       ?CalcVolume@@YAMPAVCTGroup@citk@@@Z 791ea2c0 f   citk_Volumes.obj
 0001:00009370       ?CalcVolume@@YAMPAVCTEntity@citk@@@Z 791ea370 f   citk_Volumes.obj
 0001:00009470       ?GetClassDesc_IVPleh@@YAPAVClassDesc@citk@@XZ 791ea470 f i citk_Volumes.obj
 0001:00009470       ?_CD@IVPleh@@SAPAVClassDesc@citk@@XZ 791ea470 f i citk_Volumes.obj
 0001:00009470       ?GetCD@IVPleh@@UBEPAVClassDesc@citk@@XZ 791ea470 f i citk_Volumes.obj
 0001:00009480       ??0IVPleh@@QAE@XZ          791ea480 f i citk_Volumes.obj
 0001:000094b0       ??_EIVPleh@@UAEPAXI@Z      791ea4b0 f i citk_Volumes.obj
 0001:00009570       ??1IVPleh@@UAE@XZ          791ea570 f   citk_Volumes.obj
 0001:000095d0       ?OnDelete@IVPleh@@UAEXPAVCTAggregated@citk@@@Z 791ea5d0 f   citk_Volumes.obj
 0001:00009610       ?Process@IVPleh@@UAEXAAUProcessInfo_t@citk@@@Z 791ea610 f   citk_Volumes.obj
 0001:00009780       ?SetEntity@IVPleh@@QAEXPAVCTEntity@citk@@@Z 791ea780 f   citk_Volumes.obj
 0001:000098a0       ?GetCD@IVTreeProcessor@@UBEPAVClassDesc@citk@@XZ 791ea8a0 f i citk_Volumes.obj
 0001:000098b0       ?OnNewSubtree@IVTreeProcessor@@UAEXPAVCTEntity@citk@@@Z 791ea8b0 f i citk_Volumes.obj
 0001:000098c0       ?Create@CD_IVPleh@@UAEPAXXZ 791ea8c0 f i citk_Volumes.obj
 0001:00009930       ?Create@CD_IVTreeProcessor@@UAEPAXXZ 791ea930 f i citk_Volumes.obj
 0001:00009b30       ??_EIVTreeProcessor@@UAEPAXI@Z 791eab30 f i * CIL library *:* CIL module *
 0001:00009b30       ??_GIVTreeProcessor@@UAEPAXI@Z 791eab30 f i citk_Volumes.obj
 0001:00009be0       ?Process@IVTreeProcessor@@UAEXAAUProcessInfo_t@citk@@@Z 791eabe0 f   citk_Volumes.obj
 0001:00009ce0       ?AddProcessPoint@IVTreeProcessor@@UAEXPAVCTEntity@citk@@@Z 791eace0 f   citk_Volumes.obj
 0001:0000a480       ?RemoveProcessPoint@IVTreeProcessor@@UAEXPAVCTEntity@citk@@@Z 791eb480 f   citk_Volumes.obj
 0001:0000a550       ?DoAddProperties@IVTreeProcessor@@MAEXXZ 791eb550 f   citk_Volumes.obj
 0001:0000a650       ??1?$DHashTable@VIVPleh@@K@citkTypes@@QAE@XZ 791eb650 f i citk_Volumes.obj
 0001:0000a660       ??1?$SafeArray@VCTGroup@citk@@@citk@@UAE@XZ 791eb660 f i citk_Volumes.obj
 0001:0000a700       ??0?$SafeArray@VCTGroup@citk@@@citk@@QAE@XZ 791eb700 f i citk_Volumes.obj
 0001:0000a730       ??_E?$SafeArray@VCTGroup@citk@@@citk@@UAEPAXI@Z 791eb730 f i * CIL library *:* CIL module *
 0001:0000a730       ??_G?$SafeArray@VCTGroup@citk@@@citk@@UAEPAXI@Z 791eb730 f i citk_Volumes.obj
 0001:0000a760       ?Add@?$ArrayVal@G$0A@@citkTypes@@QAEIABG@Z 791eb760 f i citk_Volumes.obj
 0001:0000a800       ?Iterate@?$DTreeClassIterator@VCTGeometry@citk@@@citk@@QAEHPAVCTEntity@2@@Z 791eb800 f i citk_Volumes.obj
 0001:0000a8d0       ?OnDelete@?$SafeArray@VCTGroup@citk@@@citk@@UAEXPAVCTAggregated@2@@Z 791eb8d0 f i citk_Volumes.obj
 0001:0000a8d0       ?OnDelete@?$SafeArray@VCTEntity@citk@@@citk@@UAEXPAVCTAggregated@2@@Z 791eb8d0 f i citk_Volumes.obj
 0001:0000a910       ??1?$SafeArray@VCTEntity@citk@@@citk@@UAE@XZ 791eb910 f i citk_Volumes.obj
 0001:0000a9b0       ??_G?$SafeArray@VCTEntity@citk@@@citk@@UAEPAXI@Z 791eb9b0 f i citk_Volumes.obj
 0001:0000a9b0       ??_E?$SafeArray@VCTEntity@citk@@@citk@@UAEPAXI@Z 791eb9b0 f i * CIL library *:* CIL module *
 0001:0000a9e0       ___local_stdio_printf_options 791eb9e0 f i citkTypes:citkt_String.obj
 0001:0000a9f0       __vsnprintf_l              791eb9f0 f i citkTypes:citkt_String.obj
 0001:0000aa30       ?Printf@String@citkTypes@@QAAHPBDZZ 791eba30 f   citkTypes:citkt_String.obj
 0001:0000aa60       ??_GDThread@citkTypes@@UAEPAXI@Z 791eba60 f i citkTypes:citkt_Thread_Win32.obj
 0001:0000aa60       ??_EDThread@citkTypes@@UAEPAXI@Z 791eba60 f i * CIL library *:* CIL module *
 0001:0000aa90       ?_ThreadProc@DThread@citkTypes@@CGIPAX@Z 791eba90 f   citkTypes:citkt_Thread_Win32.obj
 0001:0000aac0       ?ThreadProc@DThread@citkTypes@@MAEXPAX@Z 791ebac0 f   citkTypes:citkt_Thread_Win32.obj
 0001:0000aad0       ?utf8towcs@@YAIPA_WPBDI@Z  791ebad0 f   citkTypes:citkt_UTF8.obj
 0001:0000ac40       ?Create@DBitmap@citkTypes@@QAEXHHH@Z 791ebc40 f   citkTypes:citkt_Bitmap.obj
 0001:0000ace0       ?_Attach@DBitmap@citkTypes@@IAEXHHPATColor32@2@H@Z 791ebce0 f   citkTypes:citkt_Bitmap.obj
 0001:0000ad60       ?Create@DBitmap@citkTypes@@QAEXHHTColor32@2@@Z 791ebd60 f   citkTypes:citkt_Bitmap.obj
 0001:0000ada0       ?Fill@DBitmap@citkTypes@@QAEXABTColor32@2@@Z 791ebda0 f   citkTypes:citkt_Bitmap.obj
 0001:0000ae10       ?FillRect@DBitmap@citkTypes@@QAEXABV?$DRect@H@2@ABTColor32@2@@Z 791ebe10 f   citkTypes:citkt_Bitmap.obj
 0001:0000af20       ?_Grow@DHashTableHelper@citkTypes@@IAEXAAPAU_hashslot_t@12@@Z 791ebf20 f   citkTypes:citkt_HashTable.obj
 0001:0000b0b7       ?Create@ClassDesc@citk@@UAEPAXXZ 791ec0b7 f   citkcore:citkCore.dll
 0001:0000b0bd       ?Delete@ClassDesc@citk@@UAEXPAX@Z 791ec0bd f   citkcore:citkCore.dll
 0001:0000b0c3       ?Delete@CTBasic@citk@@UAEXXZ 791ec0c3 f   citkcore:citkCore.dll
 0001:0000b0c9       ?OnDelete@CTBasic@citk@@UAEXPAVCTAggregated@2@@Z 791ec0c9 f   citkcore:citkCore.dll
 0001:0000b0cf       ?QueryInterface@CTBasic@citk@@UAE_NKPAPAX@Z 791ec0cf f   citkcore:citkCore.dll
 0001:0000b0d5       ?GetSizeEstimate@CTBasic@citk@@UAEIXZ 791ec0d5 f   citkcore:citkCore.dll
 0001:0000b0db       ?Delete@CTAggregated@citk@@UAEXXZ 791ec0db f   citkcore:citkCore.dll
 0001:0000b0e1       ?OnDelete@CTAggregated@citk@@UAEXPAV12@@Z 791ec0e1 f   citkcore:citkCore.dll
 0001:0000b0e7       ?GetSizeEstimate@CTNamed@citk@@UAEIXZ 791ec0e7 f   citkcore:citkCore.dll
 0001:0000b0ed       ?Invalidate@CTStreamed@citk@@UAEXXZ 791ec0ed f   citkcore:citkCore.dll
 0001:0000b0f3       ?WriteToStream@CTNamed@citk@@UAEXPAVCTStream@2@K@Z 791ec0f3 f   citkcore:citkCore.dll
 0001:0000b0f9       ?WriteChunk@CTStreamed@citk@@UAEXPAVCTStream@2@K@Z 791ec0f9 f   citkcore:citkCore.dll
 0001:0000b0ff       ?ProcessChunk@CTNamed@citk@@UAE_NPAVCTStream@2@K@Z 791ec0ff f   citkcore:citkCore.dll
 0001:0000b105       ?RestoreFileData@CTStreamed@citk@@UAE_NXZ 791ec105 f   citkcore:citkCore.dll
 0001:0000b10b       ?CreateBrowseInfo@CTAggregated@citk@@UAEPAVCTBrowseInfo@2@PAV32@H@Z 791ec10b f   citkcore:citkCore.dll
 0001:0000b111       ?OnMessage@CTAggregated@citk@@UAEXHPBX@Z 791ec111 f   citkcore:citkCore.dll
 0001:0000b117       ?DoRegisterWithService@CTAggregated@citk@@MAE_NXZ 791ec117 f   citkcore:citkCore.dll
 0001:0000b11d       ?DoUnregisterWithService@CTAggregated@citk@@MAE_NXZ 791ec11d f   citkcore:citkCore.dll
 0001:0000b123       ?GetConfigName@CTInterface@citk@@UAE?AVString@citkTypes@@XZ 791ec123 f   citkcore:citkCore.dll
 0001:0000b129       ?ReadProperties@CTInterface@citk@@UAEXXZ 791ec129 f   citkcore:citkCore.dll
 0001:0000b12f       ?WriteProperties@CTInterface@citk@@UAEXXZ 791ec12f f   citkcore:citkCore.dll
 0001:0000b135       ?GetPropertyDescription@CTInterface@citk@@UAEPBDAAVDProperty@2@@Z 791ec135 f   citkcore:citkCore.dll
 0001:0000b13b       ?DoAddProperties@CTLogged@citk@@MAEXXZ 791ec13b f   citkcore:citkCore.dll
 0001:0000b141       ?OnPropertyChanged@CTInterface@citk@@MAEXAAVDProperty@2@@Z 791ec141 f   citkcore:citkCore.dll
 0001:0000b147       ?TranslateErrorCode@CTLogged@citk@@UAE?AVString@citkTypes@@J@Z 791ec147 f   citkcore:citkCore.dll
 0001:0000b14d       ?HandlesExtension@CTImportExport@citk@@UBE_NPBD@Z 791ec14d f   citkcore:citkCore.dll
 0001:0000b153       ?SetDefaults@CTBitmapImport@citk@@MAEXXZ 791ec153 f   citkcore:citkCore.dll
 0001:0000b159       ?ImportFromStream@CTImport@citk@@UAE_NPAVCTStream@2@@Z 791ec159 f   citkcore:citkCore.dll
 0001:0000b15f       ?DoEnable@CTController@citk@@MAE_NXZ 791ec15f f   citkcore:citkCore.dll
 0001:0000b165       ?DoDisable@CTController@citk@@MAEXXZ 791ec165 f   citkcore:citkCore.dll
 0001:0000b16b       ?GetCD@CTBasicPtr@citk@@UBEPAVClassDesc@2@XZ 791ec16b f   citkcore:citkCore.dll
 0001:0000b171       ?RemoveData@CTTexture@citk@@UAE_NXZ 791ec171 f   citkcore:citkCore.dll
 0001:0000b177       ?GetCD@CTTexture@citk@@UBEPAVClassDesc@2@XZ 791ec177 f   citkcore:citkCore.dll
 0001:0000b17d       ?GetSizeEstimate@CTTexture@citk@@UAEIXZ 791ec17d f   citkcore:citkCore.dll
 0001:0000b183       ?Invalidate@CTCached@citk@@UAEXXZ 791ec183 f   citkcore:citkCore.dll
 0001:0000b189       ?WriteToStream@CTTexture@citk@@UAEXPAVCTStream@2@K@Z 791ec189 f   citkcore:citkCore.dll
 0001:0000b18f       ?ProcessChunk@CTTexture@citk@@UAE_NPAVCTStream@2@K@Z 791ec18f f   citkcore:citkCore.dll
 0001:0000b195       ?DoRegisterWithService@CTTexture@citk@@MAE_NXZ 791ec195 f   citkcore:citkCore.dll
 0001:0000b19b       ?DoUnregisterWithService@CTTexture@citk@@MAE_NXZ 791ec19b f   citkcore:citkCore.dll
 0001:0000b1a1       ?DoAddProperties@CTTexture@citk@@MAEXXZ 791ec1a1 f   citkcore:citkCore.dll
 0001:0000b1a7       ?OnPropertyChanged@CTTexture@citk@@UAEXAAVDProperty@2@@Z 791ec1a7 f   citkcore:citkCore.dll
 0001:0000b1ad       ?DoCache@CTTexture@citk@@MAE_NXZ 791ec1ad f   citkcore:citkCore.dll
 0001:0000b1b3       ?DoFlush@CTTexture@citk@@MAEXXZ 791ec1b3 f   citkcore:citkCore.dll
 0001:0000b1b9       ?Load@CTTexture@citk@@UAE_NPBD@Z 791ec1b9 f   citkcore:citkCore.dll
 0001:0000b1bf       ?GetData@CTTexture@citk@@UAEPAVDBitmap@citkTypes@@XZ 791ec1bf f   citkcore:citkCore.dll
 0001:0000b1c5       ?Process@CTGeometry@citk@@UAEXAAUProcessInfo_t@2@@Z 791ec1c5 f   citkcore:citkCore.dll
 0001:0000b1cb       ?ProcessChunk@CTVertexData@citk@@UAE_NPAVCTStream@2@K@Z 791ec1cb f   citkcore:citkCore.dll
 0001:0000b1d1       ?WriteToStream@CTVertexData@citk@@UAEXPAVCTStream@2@K@Z 791ec1d1 f   citkcore:citkCore.dll
 0001:0000b1d7       ?GetSizeEstimate@CTVertexData@citk@@UAEIXZ 791ec1d7 f   citkcore:citkCore.dll
 0001:0000b1dd       ?GetCD@CTVertexData@citk@@UBEPAVClassDesc@2@XZ 791ec1dd f   citkcore:citkCore.dll
 0001:0000b1e3       ?GetCD@CTRenderState@citk@@UBEPAVClassDesc@2@XZ 791ec1e3 f   citkcore:citkCore.dll
 0001:0000b1e9       ?WriteToStream@CTRenderState@citk@@UAEXPAVCTStream@2@K@Z 791ec1e9 f   citkcore:citkCore.dll
 0001:0000b1ef       ?ProcessChunk@CTRenderState@citk@@UAE_NPAVCTStream@2@K@Z 791ec1ef f   citkcore:citkCore.dll
 0001:0000b1f5       ?DoRegisterWithService@CTRenderState@citk@@MAE_NXZ 791ec1f5 f   citkcore:citkCore.dll
 0001:0000b1fb       ?DoUnregisterWithService@CTRenderState@citk@@MAE_NXZ 791ec1fb f   citkcore:citkCore.dll
 0001:0000b201       ?DoAddProperties@CTInterface@citk@@MAEXXZ 791ec201 f   citkcore:citkCore.dll
 0001:0000b207       ?GetCD@CTRenderFlagsProperty@citk@@UBEPAVClassDesc@2@XZ 791ec207 f   citkcore:citkCore.dll
 0001:0000b20d       ?WriteToStream@CTRenderFlagsProperty@citk@@UAEXPAVCTStream@2@K@Z 791ec20d f   citkcore:citkCore.dll
 0001:0000b213       ?ProcessChunk@CTRenderFlagsProperty@citk@@UAE_NPAVCTStream@2@K@Z 791ec213 f   citkcore:citkCore.dll
 0001:0000b219       ?Clone@CTRenderFlagsProperty@citk@@UBEPAVCTRenderProperty@2@XZ 791ec219 f   citkcore:citkCore.dll
 0001:0000b21f       ?_Combine@CTRenderFlagsProperty@citk@@UAE_NPBVCTRenderProperty@2@@Z 791ec21f f   citkcore:citkCore.dll
 0001:0000b225       ?_Compare@CTRenderFlagsProperty@citk@@UBE_NPBVCTRenderProperty@2@@Z 791ec225 f   citkcore:citkCore.dll
 0001:0000b22b       ?GetCD@CTAlphaProperty@citk@@UBEPAVClassDesc@2@XZ 791ec22b f   citkcore:citkCore.dll
 0001:0000b231       ?WriteToStream@CTAlphaProperty@citk@@UAEXPAVCTStream@2@K@Z 791ec231 f   citkcore:citkCore.dll
 0001:0000b237       ?ProcessChunk@CTAlphaProperty@citk@@UAE_NPAVCTStream@2@K@Z 791ec237 f   citkcore:citkCore.dll
 0001:0000b23d       ?Clone@CTAlphaProperty@citk@@UBEPAVCTRenderProperty@2@XZ 791ec23d f   citkcore:citkCore.dll
 0001:0000b243       ?_Combine@CTRenderProperty@citk@@UAE_NPBV12@@Z 791ec243 f   citkcore:citkCore.dll
 0001:0000b249       ?_Compare@CTAlphaProperty@citk@@UBE_NPBVCTRenderProperty@2@@Z 791ec249 f   citkcore:citkCore.dll
 0001:0000b24f       ?GetSizeEstimate@CTEntity@citk@@UAEIXZ 791ec24f f   citkcore:citkCore.dll
 0001:0000b255       ?WriteToStream@CTGeometry@citk@@UAEXPAVCTStream@2@K@Z 791ec255 f   citkcore:citkCore.dll
 0001:0000b25b       ?ProcessChunk@CTGeometry@citk@@UAE_NPAVCTStream@2@K@Z 791ec25b f   citkcore:citkCore.dll
 0001:0000b261       ?OnMessage@CTEntity@citk@@UAEXHPBX@Z 791ec261 f   citkcore:citkCore.dll
 0001:0000b267       ?DoAddProperties@CTEntity@citk@@MAEXXZ 791ec267 f   citkcore:citkCore.dll
 0001:0000b26d       ?CheckWithRay@CTGeometry@citk@@UAE_NAAVDTreePicker@2@ABVLine3@citkTypes@@@Z 791ec26d f   citkcore:citkCore.dll
 0001:0000b273       ?UpdateRoot@CTEntity@citk@@UAEXXZ 791ec273 f   citkcore:citkCore.dll
 0001:0000b279       ?FindParent@CTEntity@citk@@UAEPAVCTGroup@2@QAV32@@Z 791ec279 f   citkcore:citkCore.dll
 0001:0000b27f       ?FindParentByName@CTEntity@citk@@UAEPAVCTGroup@2@PBD@Z 791ec27f f   citkcore:citkCore.dll
 0001:0000b285       ?FindChildByName@CTEntity@citk@@UAEPAV12@PBD@Z 791ec285 f   citkcore:citkCore.dll
 0001:0000b28b       ?FindChildByNameIC@CTEntity@citk@@UAEPAV12@PBD@Z 791ec28b f   citkcore:citkCore.dll
 0001:0000b291       ?FindChild@CTEntity@citk@@UAEPAV12@QAV12@@Z 791ec291 f   citkcore:citkCore.dll
 0001:0000b297       ?OnRemoveFromWorld@CTEntity@citk@@UAEXXZ 791ec297 f   citkcore:citkCore.dll
 0001:0000b29d       ?OnParentChanged@CTEntity@citk@@UAEXXZ 791ec29d f   citkcore:citkCore.dll
 0001:0000b2a3       ?MakeOtherTwin@CTEntity@citk@@UBEXPAV12@@Z 791ec2a3 f   citkcore:citkCore.dll
 0001:0000b2a9       ?MakeTwin@CTEntity@citk@@UAEXPBV12@@Z 791ec2a9 f   citkcore:citkCore.dll
 0001:0000b2af       ?OnCollision@CTEntity@citk@@UAEXPAV12@PAVVector3@citkTypes@@1@Z 791ec2af f   citkcore:citkCore.dll
 0001:0000b2b5       ?UpdateTreeWorldSpace@CTEntity@citk@@UAEXXZ 791ec2b5 f   citkcore:citkCore.dll
 0001:0000b2bb       ?Illuminate@CTGeometry@citk@@UAE_NPAPAVCTLight@2@H@Z 791ec2bb f   citkcore:citkCore.dll
 0001:0000b2c1       ?GetCD@CTMaterialProperty@citk@@UBEPAVClassDesc@2@XZ 791ec2c1 f   citkcore:citkCore.dll
 0001:0000b2c7       ?WriteToStream@CTMaterialProperty@citk@@UAEXPAVCTStream@2@K@Z 791ec2c7 f   citkcore:citkCore.dll
 0001:0000b2cd       ?ProcessChunk@CTMaterialProperty@citk@@UAE_NPAVCTStream@2@K@Z 791ec2cd f   citkcore:citkCore.dll
 0001:0000b2d3       ?Clone@CTMaterialProperty@citk@@UBEPAVCTRenderProperty@2@XZ 791ec2d3 f   citkcore:citkCore.dll
 0001:0000b2d9       ?_Combine@CTMaterialProperty@citk@@UAE_NPBVCTRenderProperty@2@@Z 791ec2d9 f   citkcore:citkCore.dll
 0001:0000b2df       ?_Compare@CTMaterialProperty@citk@@UBE_NPBVCTRenderProperty@2@@Z 791ec2df f   citkcore:citkCore.dll
 0001:0000b2e5       ?WriteToStream@CTExtraData@citk@@UAEXPAVCTStream@2@K@Z 791ec2e5 f   citkcore:citkCore.dll
 0001:0000b2eb       ?ProcessChunk@CTExtraData@citk@@UAE_NPAVCTStream@2@K@Z 791ec2eb f   citkcore:citkCore.dll
 0001:0000b2f1       ?GetCD@CTGeometry@citk@@UBEPAVClassDesc@2@XZ 791ec2f1 f   citkcore:citkCore.dll
 0001:0000b2f7       ?Copy@CTGeometry@citk@@UBEPAVCTEntity@2@XZ 791ec2f7 f   citkcore:citkCore.dll
 0001:0000b2fd       ?UpdateBoundingVolume@CTGeometry@citk@@UAEPAVCTShape@2@W4kind_t@CTProcess@2@@Z 791ec2fd f   citkcore:citkCore.dll
 0001:0000b303       ?GetCD@CTWireFrameProperty@citk@@UBEPAVClassDesc@2@XZ 791ec303 f   citkcore:citkCore.dll
 0001:0000b309       ?WriteToStream@CTWireFrameProperty@citk@@UAEXPAVCTStream@2@K@Z 791ec309 f   citkcore:citkCore.dll
 0001:0000b30f       ?ProcessChunk@CTWireFrameProperty@citk@@UAE_NPAVCTStream@2@K@Z 791ec30f f   citkcore:citkCore.dll
 0001:0000b315       ?Clone@CTWireFrameProperty@citk@@UBEPAVCTRenderProperty@2@XZ 791ec315 f   citkcore:citkCore.dll
 0001:0000b31b       ?_Combine@CTWireFrameProperty@citk@@UAE_NPBVCTRenderProperty@2@@Z 791ec31b f   citkcore:citkCore.dll
 0001:0000b321       ?_Compare@CTWireFrameProperty@citk@@UBE_NPBVCTRenderProperty@2@@Z 791ec321 f   citkcore:citkCore.dll
 0001:0000b327       ?GetSizeEstimate@CTAggregated@citk@@UAEIXZ 791ec327 f   citkcore:citkCore.dll
 0001:0000b32d       ?WriteToStream@CTStreamed@citk@@UAEXPAVCTStream@2@K@Z 791ec32d f   citkcore:citkCore.dll
 0001:0000b333       ?ProcessChunk@CTStreamed@citk@@UAE_NPAVCTStream@2@K@Z 791ec333 f   citkcore:citkCore.dll
 0001:0000b339       ?Process@CT3DText@citk@@UAEXAAUProcessInfo_t@2@@Z 791ec339 f   citkcore:citkCore.dll
 0001:0000b33f       ?GetCD@CT3DText@citk@@UBEPAVClassDesc@2@XZ 791ec33f f   citkcore:citkCore.dll
 0001:0000b345       ?WriteToStream@CTMultiMtlGeometry@citk@@UAEXPAVCTStream@2@K@Z 791ec345 f   citkcore:citkCore.dll
 0001:0000b34b       ?ProcessChunk@CTMultiMtlGeometry@citk@@UAE_NPAVCTStream@2@K@Z 791ec34b f   citkcore:citkCore.dll
 0001:0000b351       ?Copy@CT3DText@citk@@UBEPAVCTEntity@2@XZ 791ec351 f   citkcore:citkCore.dll
 0001:0000b357       ?Illuminate@CTMultiMtlGeometry@citk@@UAE_NPAPAVCTLight@2@H@Z 791ec357 f   citkcore:citkCore.dll
 0001:0000b35d       ?WriteToStream@CTProcess@citk@@UAEXPAVCTStream@2@K@Z 791ec35d f   citkcore:citkCore.dll
 0001:0000b363       ?ProcessChunk@CTProcess@citk@@UAE_NPAVCTStream@2@K@Z 791ec363 f   citkcore:citkCore.dll
 0001:0000b369       ?DoAddProperties@CTProcess@citk@@MAEXXZ 791ec369 f   citkcore:citkCore.dll
 0001:0000b36f       ?GetCD@CTGroup@citk@@UBEPAVClassDesc@2@XZ 791ec36f f   citkcore:citkCore.dll
 0001:0000b375       ?GetSizeEstimate@CTGroup@citk@@UAEIXZ 791ec375 f   citkcore:citkCore.dll
 0001:0000b37b       ?WriteToStream@CTGroup@citk@@UAEXPAVCTStream@2@K@Z 791ec37b f   citkcore:citkCore.dll
 0001:0000b381       ?ProcessChunk@CTGroup@citk@@UAE_NPAVCTStream@2@K@Z 791ec381 f   citkcore:citkCore.dll
 0001:0000b387       ?Process@CTGroup@citk@@UAEXAAUProcessInfo_t@2@@Z 791ec387 f   citkcore:citkCore.dll
 0001:0000b38d       ?Copy@CTGroup@citk@@UBEPAVCTEntity@2@XZ 791ec38d f   citkcore:citkCore.dll
 0001:0000b393       ?UpdateBoundingVolume@CTGroup@citk@@UAEPAVCTShape@2@W4kind_t@CTProcess@2@@Z 791ec393 f   citkcore:citkCore.dll
 0001:0000b399       ?CheckWithRay@CTGroup@citk@@UAE_NAAVDTreePicker@2@ABVLine3@citkTypes@@@Z 791ec399 f   citkcore:citkCore.dll
 0001:0000b39f       ?UpdateRoot@CTGroup@citk@@UAEXXZ 791ec39f f   citkcore:citkCore.dll
 0001:0000b3a5       ?FindParent@CTGroup@citk@@UAEPAV12@QAV12@@Z 791ec3a5 f   citkcore:citkCore.dll
 0001:0000b3ab       ?FindParentByName@CTGroup@citk@@UAEPAV12@PBD@Z 791ec3ab f   citkcore:citkCore.dll
 0001:0000b3b1       ?FindChildByName@CTGroup@citk@@UAEPAVCTEntity@2@PBD@Z 791ec3b1 f   citkcore:citkCore.dll
 0001:0000b3b7       ?FindChildByNameIC@CTGroup@citk@@UAEPAVCTEntity@2@PBD@Z 791ec3b7 f   citkcore:citkCore.dll
 0001:0000b3bd       ?FindChild@CTGroup@citk@@UAEPAVCTEntity@2@QAV32@@Z 791ec3bd f   citkcore:citkCore.dll
 0001:0000b3c3       ?UpdateTreeWorldSpace@CTGroup@citk@@UAEXXZ 791ec3c3 f   citkcore:citkCore.dll
 0001:0000b3c9       ?GetCD@CTLight@citk@@UBEPAVClassDesc@2@XZ 791ec3c9 f   citkcore:citkCore.dll
 0001:0000b3cf       ?WriteToStream@CTLight@citk@@UAEXPAVCTStream@2@K@Z 791ec3cf f   citkcore:citkCore.dll
 0001:0000b3d5       ?ProcessChunk@CTLight@citk@@UAE_NPAVCTStream@2@K@Z 791ec3d5 f   citkcore:citkCore.dll
 0001:0000b3db       ?DoAddProperties@CTLight@citk@@MAEXXZ 791ec3db f   citkcore:citkCore.dll
 0001:0000b3e1       ?Process@CTLight@citk@@UAEXAAUProcessInfo_t@2@@Z 791ec3e1 f   citkcore:citkCore.dll
 0001:0000b3e7       ?Copy@CTLight@citk@@UBEPAVCTEntity@2@XZ 791ec3e7 f   citkcore:citkCore.dll
 0001:0000b3ed       ?UpdateBoundingVolume@CTLight@citk@@UAEPAVCTShape@2@W4kind_t@CTProcess@2@@Z 791ec3ed f   citkcore:citkCore.dll
 0001:0000b3f3       ?CheckWithRay@CTEntity@citk@@UAE_NAAVDTreePicker@2@ABVLine3@citkTypes@@@Z 791ec3f3 f   citkcore:citkCore.dll
 0001:0000b3f9       ?GetCD@CTCamera@citk@@UBEPAVClassDesc@2@XZ 791ec3f9 f   citkcore:citkCore.dll
 0001:0000b3ff       ?WriteToStream@CTCamera@citk@@UAEXPAVCTStream@2@K@Z 791ec3ff f   citkcore:citkCore.dll
 0001:0000b405       ?ProcessChunk@CTCamera@citk@@UAE_NPAVCTStream@2@K@Z 791ec405 f   citkcore:citkCore.dll
 0001:0000b40b       ?DoAddProperties@CTCamera@citk@@MAEXXZ 791ec40b f   citkcore:citkCore.dll
 0001:0000b411       ?Process@CTEntity@citk@@UAEXAAUProcessInfo_t@2@@Z 791ec411 f   citkcore:citkCore.dll
 0001:0000b417       ?Copy@CTCamera@citk@@UBEPAVCTEntity@2@XZ 791ec417 f   citkcore:citkCore.dll
 0001:0000b41d       ?UpdateBoundingVolume@CTEntity@citk@@UAEPAVCTShape@2@W4kind_t@CTProcess@2@@Z 791ec41d f   citkcore:citkCore.dll
 0001:0000b423       ?GetCD@CTMotionController@citk@@UBEPAVClassDesc@2@XZ 791ec423 f   citkcore:citkCore.dll
 0001:0000b429       ?WriteToStream@CTMotionController@citk@@UAEXPAVCTStream@2@K@Z 791ec429 f   citkcore:citkCore.dll
 0001:0000b42f       ?ProcessChunk@CTMotionController@citk@@UAE_NPAVCTStream@2@K@Z 791ec42f f   citkcore:citkCore.dll
 0001:0000b435       ?DoAddProperties@CTMotionController@citk@@MAEXXZ 791ec435 f   citkcore:citkCore.dll
 0001:0000b43b       ?Reset@CTController@citk@@UAEXXZ 791ec43b f   citkcore:citkCore.dll
 0001:0000b441       ?DoEnable@CTMotionController@citk@@MAE_NXZ 791ec441 f   citkcore:citkCore.dll
 0001:0000b447       ?DoDisable@CTMotionController@citk@@MAEXXZ 791ec447 f   citkcore:citkCore.dll
 0001:0000b44d       ?GetMotionInfoSource@CTMotionController@citk@@UAEPAUMotionInfo_t@2@XZ 791ec44d f   citkcore:citkCore.dll
 0001:0000b453       ?OnCollision@CTEntityController@citk@@UAEXPAVCTEntity@2@PAVVector3@citkTypes@@1@Z 791ec453 f   citkcore:citkCore.dll
 0001:0000b459       ?Copy@CTMotionController@citk@@UBEPAVCTEntityController@2@XZ 791ec459 f   citkcore:citkCore.dll
 0001:0000b45f       ?GetCD@CTTextureProperty@citk@@UBEPAVClassDesc@2@XZ 791ec45f f   citkcore:citkCore.dll
 0001:0000b465       ?WriteToStream@CTTextureProperty@citk@@UAEXPAVCTStream@2@K@Z 791ec465 f   citkcore:citkCore.dll
 0001:0000b46b       ?ProcessChunk@CTTextureProperty@citk@@UAE_NPAVCTStream@2@K@Z 791ec46b f   citkcore:citkCore.dll
 0001:0000b471       ?Clone@CTTextureProperty@citk@@UBEPAVCTRenderProperty@2@XZ 791ec471 f   citkcore:citkCore.dll
 0001:0000b477       ?_Combine@CTTextureProperty@citk@@UAE_NPBVCTRenderProperty@2@@Z 791ec477 f   citkcore:citkCore.dll
 0001:0000b47d       ?_Compare@CTTextureProperty@citk@@UBE_NPBVCTRenderProperty@2@@Z 791ec47d f   citkcore:citkCore.dll
 0001:0000b483       ?GetCD@CTBasic@citk@@UBEPAVClassDesc@2@XZ 791ec483 f   citkcore:citkCore.dll
 0001:0000b489       ?WriteToStream@CTEntity@citk@@UAEXPAVCTStream@2@K@Z 791ec489 f   citkcore:citkCore.dll
 0001:0000b48f       ?ProcessChunk@CTEntity@citk@@UAE_NPAVCTStream@2@K@Z 791ec48f f   citkcore:citkCore.dll
 0001:0000b495       ?Copy@CTEntity@citk@@UBEPAV12@XZ 791ec495 f   citkcore:citkCore.dll
 0001:0000b4df       ___scrt_acquire_startup_lock 791ec4df f   MSVCRT:utility.obj
 0001:0000b514       ___scrt_dllmain_after_initialize_c 791ec514 f   MSVCRT:utility.obj
 0001:0000b53f       ___scrt_dllmain_before_initialize_c 791ec53f f   MSVCRT:utility.obj
 0001:0000b54d       ___scrt_dllmain_crt_thread_attach 791ec54d f   MSVCRT:utility.obj
 0001:0000b56c       ___scrt_dllmain_crt_thread_detach 791ec56c f   MSVCRT:utility.obj
 0001:0000b579       ___scrt_dllmain_exception_filter 791ec579 f   MSVCRT:utility.obj
 0001:0000b5ac       ___scrt_dllmain_uninitialize_c 791ec5ac f   MSVCRT:utility.obj
 0001:0000b5cf       ___scrt_dllmain_uninitialize_critical 791ec5cf f   MSVCRT:utility.obj
 0001:0000b5dc       ___scrt_initialize_crt     791ec5dc f   MSVCRT:utility.obj
 0001:0000b615       ___scrt_initialize_onexit_tables 791ec615 f   MSVCRT:utility.obj
 0001:0000b6bf       ___scrt_is_nonwritable_in_current_image 791ec6bf f   MSVCRT:utility.obj
 0001:0000b749       ___scrt_release_startup_lock 791ec749 f   MSVCRT:utility.obj
 0001:0000b766       ___scrt_uninitialize_crt   791ec766 f   MSVCRT:utility.obj
 0001:0000b78e       __onexit                   791ec78e f   MSVCRT:utility.obj
 0001:0000b7c9       _atexit                    791ec7c9 f   MSVCRT:utility.obj
 0001:0000b7de       ??3@YAXPAXI@Z              791ec7de f   MSVCRT:delete_scalar_size.obj
 0001:0000b7ec       ??_Etype_info@@UAEPAXI@Z   791ec7ec f i MSVCRT:std_type_info_static.obj
 0001:0000b7ec       ??_Gtype_info@@UAEPAXI@Z   791ec7ec f i MSVCRT:std_type_info_static.obj
 0001:0000b80f       ??2@YAPAXI@Z               791ec80f f   MSVCRT:new_scalar.obj
 0001:0000b83f       ??_V@YAXPAX@Z              791ec83f f   MSVCRT:delete_array.obj
 0001:0000b844       ??_U@YAPAXI@Z              791ec844 f   MSVCRT:new_array.obj
 0001:0000b84d       ??_M@YGXPAXIIP6EX0@Z@Z     791ec84d f   MSVCRT:ehvecdtr.obj
 0001:0000b8c7       ?__ArrayUnwind@@YGXPAXIIP6EX0@Z@Z 791ec8c7 f   MSVCRT:ehvecdtr.obj
 0001:0000b935       ??_V@YAXPAXI@Z             791ec935 f   MSVCRT:delete_array_size.obj
 0001:0000ba56       __Init_thread_footer       791eca56 f   MSVCRT:thread_safe_statics.obj
 0001:0000baa0       __Init_thread_header       791ecaa0 f   MSVCRT:thread_safe_statics.obj
 0001:0000baf2       __Init_thread_notify       791ecaf2 f   MSVCRT:thread_safe_statics.obj
 0001:0000bb33       __Init_thread_wait         791ecb33 f   MSVCRT:thread_safe_statics.obj
 0001:0000bba0       ??_L@YGXPAXIIP6EX0@Z1@Z    791ecba0 f   MSVCRT:ehvecctr.obj
 0001:0000bf16       __DllMainCRTStartup@12     791ecf16 f   MSVCRT:dll_dllmain.obj
 0001:0000bf39       ___isa_available_init      791ecf39 f   MSVCRT:_cpu_disp_.obj
 0001:0000c0d2       __get_startup_argv_mode    791ed0d2 f   MSVCRT:argv_mode.obj
 0001:0000c0d6       ___scrt_is_ucrt_dll_in_use 791ed0d6 f   MSVCRT:ucrt_detection.obj
 0001:0000c0e2       ___scrt_fastfail           791ed0e2 f   MSVCRT:utility_desktop.obj
 0001:0000c1fe       __crt_debugger_hook        791ed1fe f   MSVCRT:utility_desktop.obj
 0001:0000c206       @_guard_check_icall@4      791ed206 f i MSVCRT:checkcfg.obj
 0001:0000c210       __SEH_prolog4              791ed210 f   MSVCRT:_sehprolg4_.obj
 0001:0000c256       __SEH_epilog4              791ed256 f   MSVCRT:_sehprolg4_.obj
 0001:0000c26b       __except_handler4          791ed26b f   MSVCRT:_chandler4gs_.obj
 0001:0000c28e       ??3@YAXPAX@Z               791ed28e f   MSVCRT:delete_scalar.obj
 0001:0000c293       ??0bad_alloc@std@@QAE@ABV01@@Z 791ed293 f i MSVCRT:throw_bad_alloc.obj
 0001:0000c2ae       ??0bad_alloc@std@@QAE@XZ   791ed2ae f i MSVCRT:throw_bad_alloc.obj
 0001:0000c2c6       ??0bad_array_new_length@std@@QAE@ABV01@@Z 791ed2c6 f i MSVCRT:throw_bad_alloc.obj
 0001:0000c2e1       ??0bad_array_new_length@std@@QAE@XZ 791ed2e1 f i MSVCRT:throw_bad_alloc.obj
 0001:0000c2f9       ??0exception@std@@QAE@ABV01@@Z 791ed2f9 f i MSVCRT:throw_bad_alloc.obj
 0001:0000c325       ??1bad_alloc@std@@UAE@XZ   791ed325 f i MSVCRT:throw_bad_alloc.obj
 0001:0000c325       ??1bad_array_new_length@std@@UAE@XZ 791ed325 f i MSVCRT:throw_bad_alloc.obj
 0001:0000c336       ??_Gbad_alloc@std@@UAEPAXI@Z 791ed336 f i MSVCRT:throw_bad_alloc.obj
 0001:0000c336       ??_Gexception@std@@UAEPAXI@Z 791ed336 f i MSVCRT:throw_bad_alloc.obj
 0001:0000c336       ??_Ebad_alloc@std@@UAEPAXI@Z 791ed336 f i MSVCRT:throw_bad_alloc.obj
 0001:0000c336       ??_Ebad_array_new_length@std@@UAEPAXI@Z 791ed336 f i MSVCRT:throw_bad_alloc.obj
 0001:0000c336       ??_Eexception@std@@UAEPAXI@Z 791ed336 f i MSVCRT:throw_bad_alloc.obj
 0001:0000c336       ??_Gbad_array_new_length@std@@UAEPAXI@Z 791ed336 f i MSVCRT:throw_bad_alloc.obj
 0001:0000c363       ?__scrt_throw_std_bad_alloc@@YAXXZ 791ed363 f   MSVCRT:throw_bad_alloc.obj
 0001:0000c380       ?__scrt_throw_std_bad_array_new_length@@YAXXZ 791ed380 f   MSVCRT:throw_bad_alloc.obj
 0001:0000c39d       ?what@exception@std@@UBEPBDXZ 791ed39d f i MSVCRT:throw_bad_alloc.obj
 0001:0000c3f9       ___security_init_cookie    791ed3f9 f   MSVCRT:gs_support.obj
 0001:0000c444       ?__scrt_initialize_type_info@@YAXXZ 791ed444 f   MSVCRT:tncleanup.obj
 0001:0000c450       ?__scrt_uninitialize_type_info@@YAXXZ 791ed450 f   MSVCRT:tncleanup.obj
 0001:0000c45c       ___scrt_initialize_default_local_stdio_options 791ed45c f   MSVCRT:default_local_stdio_options.obj
 0001:0000c479       ___scrt_get_dyn_tls_init_callback 791ed479 f   MSVCRT:dyn_tls_init.obj
 0001:0000c47f       __RTC_Initialize           791ed47f f   MSVCRT:_initsect_.obj
 0001:0000c4aa       __RTC_Terminate            791ed4aa f   MSVCRT:_initsect_.obj
 0001:0000c4d5       @_guard_check_icall_nop@4  791ed4d5 f i MSVCRT:guard_support.obj
 0001:0000c4d6       @__security_check_cookie@4 791ed4d6 f   MSVCRT:_secchk_.obj
 0001:0000c4e7       ___raise_securityfailure   791ed4e7 f   MSVCRT:gs_report.obj
 0001:0000c50f       ___report_gsfailure        791ed50f f   MSVCRT:gs_report.obj
 0001:0000c60a       ___CxxFrameHandler3        791ed60a f   vcruntime:VCRUNTIME140.dll
 0001:0000c610       ___std_terminate           791ed610 f   vcruntime:VCRUNTIME140.dll
 0001:0000c616       ___vcrt_InitializeCriticalSectionEx 791ed616 f   vcruntime:VCRUNTIME140.dll
 0001:0000c61c       _memset                    791ed61c f   vcruntime:VCRUNTIME140.dll
 0001:0000c622       __except_handler4_common   791ed622 f   vcruntime:VCRUNTIME140.dll
 0001:0000c628       ___std_exception_copy      791ed628 f   vcruntime:VCRUNTIME140.dll
 0001:0000c62e       ___std_exception_destroy   791ed62e f   vcruntime:VCRUNTIME140.dll
 0001:0000c634       __CxxThrowException@8      791ed634 f   vcruntime:VCRUNTIME140.dll
 0001:0000c63a       ___std_type_info_destroy_list 791ed63a f   vcruntime:VCRUNTIME140.dll
 0001:0000c640       _free                      791ed640 f   ucrt:api-ms-win-crt-heap-l1-1-0.dll
 0001:0000c646       _malloc                    791ed646 f   ucrt:api-ms-win-crt-heap-l1-1-0.dll
 0001:0000c64c       __seh_filter_dll           791ed64c f   ucrt:api-ms-win-crt-runtime-l1-1-0.dll
 0001:0000c652       __configure_narrow_argv    791ed652 f   ucrt:api-ms-win-crt-runtime-l1-1-0.dll
 0001:0000c658       __initialize_narrow_environment 791ed658 f   ucrt:api-ms-win-crt-runtime-l1-1-0.dll
 0001:0000c65e       __initialize_onexit_table  791ed65e f   ucrt:api-ms-win-crt-runtime-l1-1-0.dll
 0001:0000c664       __register_onexit_function 791ed664 f   ucrt:api-ms-win-crt-runtime-l1-1-0.dll
 0001:0000c66a       __execute_onexit_table     791ed66a f   ucrt:api-ms-win-crt-runtime-l1-1-0.dll
 0001:0000c670       __crt_atexit               791ed670 f   ucrt:api-ms-win-crt-runtime-l1-1-0.dll
 0001:0000c676       __cexit                    791ed676 f   ucrt:api-ms-win-crt-runtime-l1-1-0.dll
 0001:0000c67c       __callnewh                 791ed67c f   ucrt:api-ms-win-crt-heap-l1-1-0.dll
 0001:0000c682       _terminate                 791ed682 f   ucrt:api-ms-win-crt-runtime-l1-1-0.dll
 0001:0000c688       __initterm                 791ed688 f   ucrt:api-ms-win-crt-runtime-l1-1-0.dll
 0001:0000c68e       __initterm_e               791ed68e f   ucrt:api-ms-win-crt-runtime-l1-1-0.dll
 0001:0000c694       _IsProcessorFeaturePresent@4 791ed694 f   kernel32:KERNEL32.dll
 0001:0000c69a       ___acrt_thread_attach      791ed69a f   MSVCRT:ucrt_stubs.obj
 0001:0000c69a       ___scrt_stub_for_acrt_thread_detach 791ed69a f   MSVCRT:ucrt_stubs.obj
 0001:0000c69a       ___vcrt_initialize         791ed69a f   MSVCRT:ucrt_stubs.obj
 0001:0000c69a       ___vcrt_uninitialize       791ed69a f   MSVCRT:ucrt_stubs.obj
 0001:0000c69a       ___scrt_stub_for_acrt_initialize 791ed69a f   MSVCRT:ucrt_stubs.obj
 0001:0000c69a       ___acrt_thread_detach      791ed69a f   MSVCRT:ucrt_stubs.obj
 0001:0000c69a       ___acrt_uninitialize       791ed69a f   MSVCRT:ucrt_stubs.obj
 0001:0000c69a       ___vcrt_thread_detach      791ed69a f   MSVCRT:ucrt_stubs.obj
 0001:0000c69a       ___vcrt_thread_attach      791ed69a f   MSVCRT:ucrt_stubs.obj
 0001:0000c69a       ___acrt_uninitialize_critical 791ed69a f   MSVCRT:ucrt_stubs.obj
 0001:0000c69a       ___vcrt_uninitialize_critical 791ed69a f   MSVCRT:ucrt_stubs.obj
 0001:0000c69a       ___scrt_stub_for_acrt_uninitialize 791ed69a f   MSVCRT:ucrt_stubs.obj
 0001:0000c69a       ___scrt_stub_for_acrt_thread_attach 791ed69a f   MSVCRT:ucrt_stubs.obj
 0001:0000c69a       ___acrt_initialize         791ed69a f   MSVCRT:ucrt_stubs.obj
 0001:0000c69a       ___scrt_stub_for_acrt_uninitialize_critical 791ed69a f   MSVCRT:ucrt_stubs.obj
 0001:0000c69d       ___scrt_stub_for_is_c_termination_complete 791ed69d f   MSVCRT:ucrt_stubs.obj
 0001:0000c69d       __is_c_termination_complete 791ed69d f   MSVCRT:ucrt_stubs.obj
 0001:0000c6a0       __alloca_probe_16          791ed6a0 f   MSVCRT:alloca16.obj
 0001:0000c6b6       __alloca_probe_8           791ed6b6     MSVCRT:alloca16.obj
 0001:0000c6d0       __alloca_probe             791ed6d0 f   MSVCRT:chkstk.obj
 0001:0000c6d0       __chkstk                   791ed6d0 f   MSVCRT:chkstk.obj
 0001:0000c6fd       _memcpy                    791ed6fd f   vcruntime:VCRUNTIME140.dll
 0002:00000000       __imp__DisableThreadLibraryCalls@4 791ef000     kernel32:KERNEL32.dll
 0002:00000004       __imp__IsDebuggerPresent@0 791ef004     kernel32:KERNEL32.dll
 0002:00000008       __imp__WaitForSingleObject@8 791ef008     kernel32:KERNEL32.dll
 0002:0000000c       __imp__ResumeThread@4      791ef00c     kernel32:KERNEL32.dll
 0002:00000010       __imp__TerminateProcess@8  791ef010     kernel32:KERNEL32.dll
 0002:00000014       __imp__GetCurrentProcess@0 791ef014     kernel32:KERNEL32.dll
 0002:00000018       __imp__InitializeSListHead@4 791ef018     kernel32:KERNEL32.dll
 0002:0000001c       __imp__GetSystemTimeAsFileTime@4 791ef01c     kernel32:KERNEL32.dll
 0002:00000020       __imp__GetCurrentThreadId@0 791ef020     kernel32:KERNEL32.dll
 0002:00000024       __imp__GetCurrentProcessId@0 791ef024     kernel32:KERNEL32.dll
 0002:00000028       __imp__QueryPerformanceCounter@4 791ef028     kernel32:KERNEL32.dll
 0002:0000002c       __imp__SetUnhandledExceptionFilter@4 791ef02c     kernel32:KERNEL32.dll
 0002:00000030       __imp__UnhandledExceptionFilter@4 791ef030     kernel32:KERNEL32.dll
 0002:00000034       __imp__IsProcessorFeaturePresent@4 791ef034     kernel32:KERNEL32.dll
 0002:00000038       __imp__GetProcAddress@8    791ef038     kernel32:KERNEL32.dll
 0002:0000003c       __imp__GetModuleHandleW@4  791ef03c     kernel32:KERNEL32.dll
 0002:00000040       __imp__CreateEventW@16     791ef040     kernel32:KERNEL32.dll
 0002:00000044       __imp__WaitForSingleObjectEx@12 791ef044     kernel32:KERNEL32.dll
 0002:00000048       __imp__ResetEvent@4        791ef048     kernel32:KERNEL32.dll
 0002:0000004c       __imp__SetEvent@4          791ef04c     kernel32:KERNEL32.dll
 0002:00000050       __imp__DeleteCriticalSection@4 791ef050     kernel32:KERNEL32.dll
 0002:00000054       __imp__LeaveCriticalSection@4 791ef054     kernel32:KERNEL32.dll
 0002:00000058       __imp__EnterCriticalSection@4 791ef058     kernel32:KERNEL32.dll
 0002:0000005c       __imp__CloseHandle@4       791ef05c     kernel32:KERNEL32.dll
 0002:00000060       \177KERNEL32_NULL_THUNK_DATA 791ef060     kernel32:KERNEL32.dll
 0002:00000064       __imp__MessageBoxW@16      791ef064     user32:USER32.dll
 0002:00000068       __imp__GetSysColor@4       791ef068     user32:USER32.dll
 0002:0000006c       \177USER32_NULL_THUNK_DATA 791ef06c     user32:USER32.dll
 0002:00000070       __imp____std_type_info_destroy_list 791ef070     vcruntime:VCRUNTIME140.dll
 0002:00000074       __imp___CxxThrowException@8 791ef074     vcruntime:VCRUNTIME140.dll
 0002:00000078       __imp____std_exception_destroy 791ef078     vcruntime:VCRUNTIME140.dll
 0002:0000007c       __imp____std_exception_copy 791ef07c     vcruntime:VCRUNTIME140.dll
 0002:00000080       __imp___except_handler4_common 791ef080     vcruntime:VCRUNTIME140.dll
 0002:00000084       __imp__memset              791ef084     vcruntime:VCRUNTIME140.dll
 0002:00000088       __imp____vcrt_InitializeCriticalSectionEx 791ef088     vcruntime:VCRUNTIME140.dll
 0002:0000008c       __imp____std_terminate     791ef08c     vcruntime:VCRUNTIME140.dll
 0002:00000090       __imp____CxxFrameHandler3  791ef090     vcruntime:VCRUNTIME140.dll
 0002:00000094       __imp__memcpy              791ef094     vcruntime:VCRUNTIME140.dll
 0002:00000098       \177VCRUNTIME140_NULL_THUNK_DATA 791ef098     vcruntime:VCRUNTIME140.dll
 0002:0000009c       __imp__mbtowc              791ef09c     ucrt:api-ms-win-crt-convert-l1-1-0.dll
 0002:000000a0       __imp__atoi                791ef0a0     ucrt:api-ms-win-crt-convert-l1-1-0.dll
 0002:000000a4       \177api-ms-win-crt-convert-l1-1-0_NULL_THUNK_DATA 791ef0a4     ucrt:api-ms-win-crt-convert-l1-1-0.dll
 0002:000000a8       __imp__malloc              791ef0a8     ucrt:api-ms-win-crt-heap-l1-1-0.dll
 0002:000000ac       __imp___callnewh           791ef0ac     ucrt:api-ms-win-crt-heap-l1-1-0.dll
 0002:000000b0       __imp__realloc             791ef0b0     ucrt:api-ms-win-crt-heap-l1-1-0.dll
 0002:000000b4       __imp__free                791ef0b4     ucrt:api-ms-win-crt-heap-l1-1-0.dll
 0002:000000b8       \177api-ms-win-crt-heap-l1-1-0_NULL_THUNK_DATA 791ef0b8     ucrt:api-ms-win-crt-heap-l1-1-0.dll
 0002:000000bc       __imp___mbsnbcmp           791ef0bc     ucrt:api-ms-win-crt-multibyte-l1-1-0.dll
 0002:000000c0       __imp___mbsicmp            791ef0c0     ucrt:api-ms-win-crt-multibyte-l1-1-0.dll
 0002:000000c4       __imp___mbscmp             791ef0c4     ucrt:api-ms-win-crt-multibyte-l1-1-0.dll
 0002:000000c8       \177api-ms-win-crt-multibyte-l1-1-0_NULL_THUNK_DATA 791ef0c8     ucrt:api-ms-win-crt-multibyte-l1-1-0.dll
 0002:000000cc       __imp___initialize_narrow_environment 791ef0cc     ucrt:api-ms-win-crt-runtime-l1-1-0.dll
 0002:000000d0       __imp___initialize_onexit_table 791ef0d0     ucrt:api-ms-win-crt-runtime-l1-1-0.dll
 0002:000000d4       __imp___register_onexit_function 791ef0d4     ucrt:api-ms-win-crt-runtime-l1-1-0.dll
 0002:000000d8       __imp___beginthreadex      791ef0d8     ucrt:api-ms-win-crt-runtime-l1-1-0.dll
 0002:000000dc       __imp___execute_onexit_table 791ef0dc     ucrt:api-ms-win-crt-runtime-l1-1-0.dll
 0002:000000e0       __imp___configure_narrow_argv 791ef0e0     ucrt:api-ms-win-crt-runtime-l1-1-0.dll
 0002:000000e4       __imp___seh_filter_dll     791ef0e4     ucrt:api-ms-win-crt-runtime-l1-1-0.dll
 0002:000000e8       __imp___crt_atexit         791ef0e8     ucrt:api-ms-win-crt-runtime-l1-1-0.dll
 0002:000000ec       __imp___initterm_e         791ef0ec     ucrt:api-ms-win-crt-runtime-l1-1-0.dll
 0002:000000f0       __imp___cexit              791ef0f0     ucrt:api-ms-win-crt-runtime-l1-1-0.dll
 0002:000000f4       __imp___initterm           791ef0f4     ucrt:api-ms-win-crt-runtime-l1-1-0.dll
 0002:000000f8       __imp__terminate           791ef0f8     ucrt:api-ms-win-crt-runtime-l1-1-0.dll
 0002:000000fc       \177api-ms-win-crt-runtime-l1-1-0_NULL_THUNK_DATA 791ef0fc     ucrt:api-ms-win-crt-runtime-l1-1-0.dll
 0002:00000100       __imp____stdio_common_vsprintf 791ef100     ucrt:api-ms-win-crt-stdio-l1-1-0.dll
 0002:00000104       __imp____stdio_common_vsscanf 791ef104     ucrt:api-ms-win-crt-stdio-l1-1-0.dll
 0002:00000108       \177api-ms-win-crt-stdio-l1-1-0_NULL_THUNK_DATA 791ef108     ucrt:api-ms-win-crt-stdio-l1-1-0.dll
 0002:0000010c       __imp__strncpy             791ef10c     ucrt:api-ms-win-crt-string-l1-1-0.dll
 0002:00000110       __imp__strdup              791ef110     ucrt:api-ms-win-crt-string-l1-1-0.dll
 0002:00000110       __imp___strdup             791ef110     ucrt:api-ms-win-crt-string-l1-1-0.dll
 0002:00000114       \177api-ms-win-crt-string-l1-1-0_NULL_THUNK_DATA 791ef114     ucrt:api-ms-win-crt-string-l1-1-0.dll
 0002:00000118       __imp__rand                791ef118     ucrt:api-ms-win-crt-utility-l1-1-0.dll
 0002:0000011c       \177api-ms-win-crt-utility-l1-1-0_NULL_THUNK_DATA 791ef11c     ucrt:api-ms-win-crt-utility-l1-1-0.dll
 0002:00000120       __imp_??1CTTexture@citk@@MAE@XZ 791ef120     citkcore:citkCore.dll
 0002:00000124       __imp_?citk_GetService@@YAPAVCTManager@citk@@PAVClassDesc@2@@Z 791ef124     citkcore:citkCore.dll
 0002:00000128       __imp_?GetCD@CTTexture@citk@@UBEPAVClassDesc@2@XZ 791ef128     citkcore:citkCore.dll
 0002:0000012c       __imp_?GetSizeEstimate@CTTexture@citk@@UAEIXZ 791ef12c     citkcore:citkCore.dll
 0002:00000130       __imp_?Invalidate@CTCached@citk@@UAEXXZ 791ef130     citkcore:citkCore.dll
 0002:00000134       __imp_?WriteToStream@CTTexture@citk@@UAEXPAVCTStream@2@K@Z 791ef134     citkcore:citkCore.dll
 0002:00000138       __imp_?ProcessChunk@CTTexture@citk@@UAE_NPAVCTStream@2@K@Z 791ef138     citkcore:citkCore.dll
 0002:0000013c       __imp_?DoRegisterWithService@CTTexture@citk@@MAE_NXZ 791ef13c     citkcore:citkCore.dll
 0002:00000140       __imp_?DoUnregisterWithService@CTTexture@citk@@MAE_NXZ 791ef140     citkcore:citkCore.dll
 0002:00000144       __imp_?DoAddProperties@CTTexture@citk@@MAEXXZ 791ef144     citkcore:citkCore.dll
 0002:00000148       __imp_?OnPropertyChanged@CTTexture@citk@@UAEXAAVDProperty@2@@Z 791ef148     citkcore:citkCore.dll
 0002:0000014c       __imp_?DoCache@CTTexture@citk@@MAE_NXZ 791ef14c     citkcore:citkCore.dll
 0002:00000150       __imp_?DoFlush@CTTexture@citk@@MAEXXZ 791ef150     citkcore:citkCore.dll
 0002:00000154       __imp_?Load@CTTexture@citk@@UAE_NPBD@Z 791ef154     citkcore:citkCore.dll
 0002:00000158       __imp_?GetData@CTTexture@citk@@UAEPAVDBitmap@citkTypes@@XZ 791ef158     citkcore:citkCore.dll
 0002:0000015c       __imp_?_CD@CTGeometry@citk@@SAPAVClassDesc@2@XZ 791ef15c     citkcore:citkCore.dll
 0002:00000160       __imp_??0CTGeometry@citk@@QAE@PBDPAVCTGroup@1@@Z 791ef160     citkcore:citkCore.dll
 0002:00000164       __imp_?SetFlag@CTRenderFlagsProperty@citk@@QAEXW4renderflag_t@12@@Z 791ef164     citkcore:citkCore.dll
 0002:00000168       __imp_?SetRenderProperty@CTRenderState@citk@@QAEXPAVCTRenderProperty@2@@Z 791ef168     citkcore:citkCore.dll
 0002:0000016c       __imp_??0CTGeometry@citk@@QAE@PBV01@@Z 791ef16c     citkcore:citkCore.dll
 0002:00000170       __imp_?GetPositionRef@DTransform@citk@@QAEAAVVector3@citkTypes@@XZ 791ef170     citkcore:citkCore.dll
 0002:00000174       __imp_?UpdateWorldSpace@CTEntity@citk@@QAE_NXZ 791ef174     citkcore:citkCore.dll
 0002:00000178       __imp_?TransformToWorld@CTEntity@citk@@QAE?AVVector3@citkTypes@@ABV34@@Z 791ef178     citkcore:citkCore.dll
 0002:0000017c       __imp_?TransformPoint@DTransform@citk@@QBE?AVVector3@citkTypes@@ABV34@@Z 791ef17c     citkcore:citkCore.dll
 0002:00000180       __imp_?InvalidateCamera@DViewport@citk@@QAEX_N@Z 791ef180     citkcore:citkCore.dll
 0002:00000184       __imp_?GetWorldToViewTransform@DViewport@citk@@QAEABVDTransform@2@XZ 791ef184     citkcore:citkCore.dll
 0002:00000188       __imp_?IsPerspective@CTCamera@citk@@QBE_NXZ 791ef188     citkcore:citkCore.dll
 0002:0000018c       __imp_?ScaleTo@CTEntity@citk@@QAEXABVVector3@citkTypes@@@Z 791ef18c     citkcore:citkCore.dll
 0002:00000190       __imp_?HasDeformation@DTransform@citk@@QBE_NXZ 791ef190     citkcore:citkCore.dll
 0002:00000194       __imp_?GetDeformationMatrix@DTransform@citk@@QBEABVMatrix33@citkTypes@@XZ 791ef194     citkcore:citkCore.dll
 0002:00000198       __imp_?Process@CTGeometry@citk@@UAEXAAUProcessInfo_t@2@@Z 791ef198     citkcore:citkCore.dll
 0002:0000019c       __imp_?SetVertexCount@CTVertexData@citk@@QAEXH@Z 791ef19c     citkcore:citkCore.dll
 0002:000001a0       __imp_?CreateIndices@CTVertexData@citk@@QAEPAGH@Z 791ef1a0     citkcore:citkCore.dll
 0002:000001a4       __imp_?CreateColors@CTVertexData@citk@@QAEPAUDColorA@citkTypes@@XZ 791ef1a4     citkcore:citkCore.dll
 0002:000001a8       __imp_?CreateTextureSet@CTVertexData@citk@@QAEPAMHH@Z 791ef1a8     citkcore:citkCore.dll
 0002:000001ac       __imp_?Add@CTGeometry@citk@@QAEHPAVCTVertexData@2@@Z 791ef1ac     citkcore:citkCore.dll
 0002:000001b0       __imp_?LockTransform@CTEntity@citk@@QAEKXZ 791ef1b0     citkcore:citkCore.dll
 0002:000001b4       __imp_??0CTRenderState@citk@@QAE@XZ 791ef1b4     citkcore:citkCore.dll
 0002:000001b8       __imp_?_CD@CTRenderState@citk@@SAPAVClassDesc@2@XZ 791ef1b8     citkcore:citkCore.dll
 0002:000001bc       __imp_??0CTVertexData@citk@@QAE@XZ 791ef1bc     citkcore:citkCore.dll
 0002:000001c0       __imp_?ProcessChunk@CTVertexData@citk@@UAE_NPAVCTStream@2@K@Z 791ef1c0     citkcore:citkCore.dll
 0002:000001c4       __imp_?WriteToStream@CTVertexData@citk@@UAEXPAVCTStream@2@K@Z 791ef1c4     citkcore:citkCore.dll
 0002:000001c8       __imp_?GetSizeEstimate@CTVertexData@citk@@UAEIXZ 791ef1c8     citkcore:citkCore.dll
 0002:000001cc       __imp_??1CTVertexData@citk@@UAE@XZ 791ef1cc     citkcore:citkCore.dll
 0002:000001d0       __imp_?GetCD@CTVertexData@citk@@UBEPAVClassDesc@2@XZ 791ef1d0     citkcore:citkCore.dll
 0002:000001d4       __imp_?_CD@CTVertexData@citk@@SAPAVClassDesc@2@XZ 791ef1d4     citkcore:citkCore.dll
 0002:000001d8       __imp_??0CTRenderFlagsProperty@citk@@QAE@XZ 791ef1d8     citkcore:citkCore.dll
 0002:000001dc       __imp_?_CD@CTRenderFlagsProperty@citk@@SAPAVClassDesc@2@XZ 791ef1dc     citkcore:citkCore.dll
 0002:000001e0       __imp_??0CTAlphaProperty@citk@@QAE@XZ 791ef1e0     citkcore:citkCore.dll
 0002:000001e4       __imp_?_CD@CTAlphaProperty@citk@@SAPAVClassDesc@2@XZ 791ef1e4     citkcore:citkCore.dll
 0002:000001e8       __imp_?GetCD@CTRenderState@citk@@UBEPAVClassDesc@2@XZ 791ef1e8     citkcore:citkCore.dll
 0002:000001ec       __imp_??1CTRenderState@citk@@MAE@XZ 791ef1ec     citkcore:citkCore.dll
 0002:000001f0       __imp_?WriteToStream@CTRenderState@citk@@UAEXPAVCTStream@2@K@Z 791ef1f0     citkcore:citkCore.dll
 0002:000001f4       __imp_?ProcessChunk@CTRenderState@citk@@UAE_NPAVCTStream@2@K@Z 791ef1f4     citkcore:citkCore.dll
 0002:000001f8       __imp_?DoRegisterWithService@CTRenderState@citk@@MAE_NXZ 791ef1f8     citkcore:citkCore.dll
 0002:000001fc       __imp_?DoUnregisterWithService@CTRenderState@citk@@MAE_NXZ 791ef1fc     citkcore:citkCore.dll
 0002:00000200       __imp_?DoAddProperties@CTInterface@citk@@MAEXXZ 791ef200     citkcore:citkCore.dll
 0002:00000204       __imp_?GetCD@CTRenderFlagsProperty@citk@@UBEPAVClassDesc@2@XZ 791ef204     citkcore:citkCore.dll
 0002:00000208       __imp_?WriteToStream@CTRenderFlagsProperty@citk@@UAEXPAVCTStream@2@K@Z 791ef208     citkcore:citkCore.dll
 0002:0000020c       __imp_?ProcessChunk@CTRenderFlagsProperty@citk@@UAE_NPAVCTStream@2@K@Z 791ef20c     citkcore:citkCore.dll
 0002:00000210       __imp_?Clone@CTRenderFlagsProperty@citk@@UBEPAVCTRenderProperty@2@XZ 791ef210     citkcore:citkCore.dll
 0002:00000214       __imp_?_Combine@CTRenderFlagsProperty@citk@@UAE_NPBVCTRenderProperty@2@@Z 791ef214     citkcore:citkCore.dll
 0002:00000218       __imp_?_Compare@CTRenderFlagsProperty@citk@@UBE_NPBVCTRenderProperty@2@@Z 791ef218     citkcore:citkCore.dll
 0002:0000021c       __imp_?GetCD@CTAlphaProperty@citk@@UBEPAVClassDesc@2@XZ 791ef21c     citkcore:citkCore.dll
 0002:00000220       __imp_?WriteToStream@CTAlphaProperty@citk@@UAEXPAVCTStream@2@K@Z 791ef220     citkcore:citkCore.dll
 0002:00000224       __imp_?ProcessChunk@CTAlphaProperty@citk@@UAE_NPAVCTStream@2@K@Z 791ef224     citkcore:citkCore.dll
 0002:00000228       __imp_?Clone@CTAlphaProperty@citk@@UBEPAVCTRenderProperty@2@XZ 791ef228     citkcore:citkCore.dll
 0002:0000022c       __imp_?_Combine@CTRenderProperty@citk@@UAE_NPBV12@@Z 791ef22c     citkcore:citkCore.dll
 0002:00000230       __imp_?_Compare@CTAlphaProperty@citk@@UBE_NPBVCTRenderProperty@2@@Z 791ef230     citkcore:citkCore.dll
 0002:00000234       __imp_?GetSizeEstimate@CTEntity@citk@@UAEIXZ 791ef234     citkcore:citkCore.dll
 0002:00000238       __imp_?WriteToStream@CTGeometry@citk@@UAEXPAVCTStream@2@K@Z 791ef238     citkcore:citkCore.dll
 0002:0000023c       __imp_?ProcessChunk@CTGeometry@citk@@UAE_NPAVCTStream@2@K@Z 791ef23c     citkcore:citkCore.dll
 0002:00000240       __imp_?OnMessage@CTEntity@citk@@UAEXHPBX@Z 791ef240     citkcore:citkCore.dll
 0002:00000244       __imp_?DoAddProperties@CTEntity@citk@@MAEXXZ 791ef244     citkcore:citkCore.dll
 0002:00000248       __imp_?CheckWithRay@CTGeometry@citk@@UAE_NAAVDTreePicker@2@ABVLine3@citkTypes@@@Z 791ef248     citkcore:citkCore.dll
 0002:0000024c       __imp_?UpdateRoot@CTEntity@citk@@UAEXXZ 791ef24c     citkcore:citkCore.dll
 0002:00000250       __imp_?FindParent@CTEntity@citk@@UAEPAVCTGroup@2@QAV32@@Z 791ef250     citkcore:citkCore.dll
 0002:00000254       __imp_?FindParentByName@CTEntity@citk@@UAEPAVCTGroup@2@PBD@Z 791ef254     citkcore:citkCore.dll
 0002:00000258       __imp_?FindChildByName@CTEntity@citk@@UAEPAV12@PBD@Z 791ef258     citkcore:citkCore.dll
 0002:0000025c       __imp_?FindChildByNameIC@CTEntity@citk@@UAEPAV12@PBD@Z 791ef25c     citkcore:citkCore.dll
 0002:00000260       __imp_?FindChild@CTEntity@citk@@UAEPAV12@QAV12@@Z 791ef260     citkcore:citkCore.dll
 0002:00000264       __imp_?OnRemoveFromWorld@CTEntity@citk@@UAEXXZ 791ef264     citkcore:citkCore.dll
 0002:00000268       __imp_?OnParentChanged@CTEntity@citk@@UAEXXZ 791ef268     citkcore:citkCore.dll
 0002:0000026c       __imp_?MakeOtherTwin@CTEntity@citk@@UBEXPAV12@@Z 791ef26c     citkcore:citkCore.dll
 0002:00000270       __imp_?MakeTwin@CTEntity@citk@@UAEXPBV12@@Z 791ef270     citkcore:citkCore.dll
 0002:00000274       __imp_?OnCollision@CTEntity@citk@@UAEXPAV12@PAVVector3@citkTypes@@1@Z 791ef274     citkcore:citkCore.dll
 0002:00000278       __imp_?UpdateTreeWorldSpace@CTEntity@citk@@UAEXXZ 791ef278     citkcore:citkCore.dll
 0002:0000027c       __imp_?Illuminate@CTGeometry@citk@@UAE_NPAPAVCTLight@2@H@Z 791ef27c     citkcore:citkCore.dll
 0002:00000280       __imp_??1CTAlphaProperty@citk@@UAE@XZ 791ef280     citkcore:citkCore.dll
 0002:00000284       __imp_??1CTRenderFlagsProperty@citk@@UAE@XZ 791ef284     citkcore:citkCore.dll
 0002:00000288       __imp_??1CTGeometry@citk@@UAE@XZ 791ef288     citkcore:citkCore.dll
 0002:0000028c       __imp_?_CD@CTExtraData@citk@@SAPAVClassDesc@2@XZ 791ef28c     citkcore:citkCore.dll
 0002:00000290       __imp_?FindExtraData@CTInterface@citk@@QBEPAVCTExtraData@2@K@Z 791ef290     citkcore:citkCore.dll
 0002:00000294       __imp_?SetColor@CTMaterialProperty@citk@@QAEXABUDColor@citkTypes@@@Z 791ef294     citkcore:citkCore.dll
 0002:00000298       __imp_?SetSpecular@CTMaterialProperty@citk@@QAEXABUDColor@citkTypes@@@Z 791ef298     citkcore:citkCore.dll
 0002:0000029c       __imp_?AddExtraData@CTInterface@citk@@QAEXPAVCTExtraData@2@@Z 791ef29c     citkcore:citkCore.dll
 0002:000002a0       __imp_?Show@CTProcess@citk@@QAEXXZ 791ef2a0     citkcore:citkCore.dll
 0002:000002a4       __imp_?Hide@CTProcess@citk@@QAEXXZ 791ef2a4     citkcore:citkCore.dll
 0002:000002a8       __imp_??0CTMaterialProperty@citk@@QAE@XZ 791ef2a8     citkcore:citkCore.dll
 0002:000002ac       __imp_?_CD@CTMaterialProperty@citk@@SAPAVClassDesc@2@XZ 791ef2ac     citkcore:citkCore.dll
 0002:000002b0       __imp_?GetCD@CTMaterialProperty@citk@@UBEPAVClassDesc@2@XZ 791ef2b0     citkcore:citkCore.dll
 0002:000002b4       __imp_?WriteToStream@CTMaterialProperty@citk@@UAEXPAVCTStream@2@K@Z 791ef2b4     citkcore:citkCore.dll
 0002:000002b8       __imp_?ProcessChunk@CTMaterialProperty@citk@@UAE_NPAVCTStream@2@K@Z 791ef2b8     citkcore:citkCore.dll
 0002:000002bc       __imp_?Clone@CTMaterialProperty@citk@@UBEPAVCTRenderProperty@2@XZ 791ef2bc     citkcore:citkCore.dll
 0002:000002c0       __imp_?_Combine@CTMaterialProperty@citk@@UAE_NPBVCTRenderProperty@2@@Z 791ef2c0     citkcore:citkCore.dll
 0002:000002c4       __imp_?_Compare@CTMaterialProperty@citk@@UBE_NPBVCTRenderProperty@2@@Z 791ef2c4     citkcore:citkCore.dll
 0002:000002c8       __imp_?WriteToStream@CTExtraData@citk@@UAEXPAVCTStream@2@K@Z 791ef2c8     citkcore:citkCore.dll
 0002:000002cc       __imp_?ProcessChunk@CTExtraData@citk@@UAE_NPAVCTStream@2@K@Z 791ef2cc     citkcore:citkCore.dll
 0002:000002d0       __imp_??1CTMaterialProperty@citk@@UAE@XZ 791ef2d0     citkcore:citkCore.dll
 0002:000002d4       __imp_??1CTExtraData@citk@@UAE@XZ 791ef2d4     citkcore:citkCore.dll
 0002:000002d8       __imp_??0CTExtraData@citk@@QAE@XZ 791ef2d8     citkcore:citkCore.dll
 0002:000002dc       __imp_?_CD@CTAggregated@citk@@SAPAVClassDesc@2@XZ 791ef2dc     citkcore:citkCore.dll
 0002:000002e0       __imp_??0CTAggregated@citk@@QAE@XZ 791ef2e0     citkcore:citkCore.dll
 0002:000002e4       __imp_?SetFactors@CTAlphaProperty@citk@@QAEXW4alphafactor_t@12@0@Z 791ef2e4     citkcore:citkCore.dll
 0002:000002e8       __imp_?Initialize@DVertexDataFiller@citk@@QAEXXZ 791ef2e8     citkcore:citkCore.dll
 0002:000002ec       __imp_?AddLine@DLinesFiller@citk@@QAEHABVVector3@citkTypes@@0ABUDColorA@4@@Z 791ef2ec     citkcore:citkCore.dll
 0002:000002f0       __imp_?Finalize@DVertexDataFiller@citk@@QAEXXZ 791ef2f0     citkcore:citkCore.dll
 0002:000002f4       __imp_??0CTVertexData@citk@@QAE@PBV01@@Z 791ef2f4     citkcore:citkCore.dll
 0002:000002f8       __imp_?citk_RemoveUpdate@@YAXPAVCTAggregated@citk@@P812@AAXJ@Z@Z 791ef2f8     citkcore:citkCore.dll
 0002:000002fc       __imp_?SetEmissive@CTMaterialProperty@citk@@QAEXABUDColor@citkTypes@@@Z 791ef2fc     citkcore:citkCore.dll
 0002:00000300       __imp_?GetHints@CTEntity@citk@@QBEKXZ 791ef300     citkcore:citkCore.dll
 0002:00000304       __imp_?GetChildCount@CTGroup@citk@@QBEHXZ 791ef304     citkcore:citkCore.dll
 0002:00000308       __imp_?GetChildNo@CTGroup@citk@@QBEPAVCTEntity@2@H@Z 791ef308     citkcore:citkCore.dll
 0002:0000030c       __imp_?citk_AddUpdate@@YAXPAVCTAggregated@citk@@P812@AAXJ@ZJH@Z 791ef30c     citkcore:citkCore.dll
 0002:00000310       __imp_?SetFlags@CTProcess@citk@@QAEXK@Z 791ef310     citkcore:citkCore.dll
 0002:00000314       __imp_?SetProcessPoint@CTEntity@citk@@QAEX_N@Z 791ef314     citkcore:citkCore.dll
 0002:00000318       __imp_??4DTransform@citk@@QAEAAV01@ABV01@@Z 791ef318     citkcore:citkCore.dll
 0002:0000031c       __imp_?GetWorldTransform@CTEntity@citk@@QBEABVDTransform@2@XZ 791ef31c     citkcore:citkCore.dll
 0002:00000320       __imp_?GetBoundingVolume@CTEntity@citk@@QBEPAVCTShape@2@W4kind_t@CTProcess@2@@Z 791ef320     citkcore:citkCore.dll
 0002:00000324       __imp_?ScaleTo@CTEntity@citk@@QAEXM@Z 791ef324     citkcore:citkCore.dll
 0002:00000328       __imp_?AddDrawable@DViewport@citk@@QAEXPAVCTProcess@2@K@Z 791ef328     citkcore:citkCore.dll
 0002:0000032c       __imp_??0CTWireFrameProperty@citk@@QAE@XZ 791ef32c     citkcore:citkCore.dll
 0002:00000330       __imp_?_CD@CTWireFrameProperty@citk@@SAPAVClassDesc@2@XZ 791ef330     citkcore:citkCore.dll
 0002:00000334       __imp_?_CD@CTGroup@citk@@SAPAVClassDesc@2@XZ 791ef334     citkcore:citkCore.dll
 0002:00000338       __imp_?GetCD@CTGeometry@citk@@UBEPAVClassDesc@2@XZ 791ef338     citkcore:citkCore.dll
 0002:0000033c       __imp_?Copy@CTGeometry@citk@@UBEPAVCTEntity@2@XZ 791ef33c     citkcore:citkCore.dll
 0002:00000340       __imp_?UpdateBoundingVolume@CTGeometry@citk@@UAEPAVCTShape@2@W4kind_t@CTProcess@2@@Z 791ef340     citkcore:citkCore.dll
 0002:00000344       __imp_?GetCD@CTWireFrameProperty@citk@@UBEPAVClassDesc@2@XZ 791ef344     citkcore:citkCore.dll
 0002:00000348       __imp_?WriteToStream@CTWireFrameProperty@citk@@UAEXPAVCTStream@2@K@Z 791ef348     citkcore:citkCore.dll
 0002:0000034c       __imp_?ProcessChunk@CTWireFrameProperty@citk@@UAE_NPAVCTStream@2@K@Z 791ef34c     citkcore:citkCore.dll
 0002:00000350       __imp_?SetDefaults@CTBitmapImport@citk@@MAEXXZ 791ef350     citkcore:citkCore.dll
 0002:00000354       __imp_?_Combine@CTWireFrameProperty@citk@@UAE_NPBVCTRenderProperty@2@@Z 791ef354     citkcore:citkCore.dll
 0002:00000358       __imp_?_Compare@CTWireFrameProperty@citk@@UBE_NPBVCTRenderProperty@2@@Z 791ef358     citkcore:citkCore.dll
 0002:0000035c       __imp_?GetSizeEstimate@CTAggregated@citk@@UAEIXZ 791ef35c     citkcore:citkCore.dll
 0002:00000360       __imp_?WriteToStream@CTStreamed@citk@@UAEXPAVCTStream@2@K@Z 791ef360     citkcore:citkCore.dll
 0002:00000364       __imp_?ProcessChunk@CTStreamed@citk@@UAE_NPAVCTStream@2@K@Z 791ef364     citkcore:citkCore.dll
 0002:00000368       __imp_??1CTWireFrameProperty@citk@@UAE@XZ 791ef368     citkcore:citkCore.dll
 0002:0000036c       __imp_??1DLinesFiller@citk@@QAE@XZ 791ef36c     citkcore:citkCore.dll
 0002:00000370       __imp_??1CTAggregated@citk@@UAE@XZ 791ef370     citkcore:citkCore.dll
 0002:00000374       __imp_?_CD@CTProcess@citk@@SAPAVClassDesc@2@XZ 791ef374     citkcore:citkCore.dll
 0002:00000378       __imp_?_CD@CTBitmapExport@citk@@SAPAVClassDesc@2@XZ 791ef378     citkcore:citkCore.dll
 0002:0000037c       __imp_??1CTProcess@citk@@MAE@XZ 791ef37c     citkcore:citkCore.dll
 0002:00000380       __imp_?Process@CT3DText@citk@@UAEXAAUProcessInfo_t@2@@Z 791ef380     citkcore:citkCore.dll
 0002:00000384       __imp_?IsHidden@CTProcess@citk@@QAE_NXZ 791ef384     citkcore:citkCore.dll
 0002:00000388       __imp_?SetText@CT3DText@citk@@QAEXPBD@Z 791ef388     citkcore:citkCore.dll
 0002:0000038c       __imp_?SetColor@CT3DText@citk@@QAEXABUDColor@citkTypes@@@Z 791ef38c     citkcore:citkCore.dll
 0002:00000390       __imp_?SetAlpha@CT3DText@citk@@QAEXM@Z 791ef390     citkcore:citkCore.dll
 0002:00000394       __imp_?MoveTo@CTEntity@citk@@QAEXABVVector3@citkTypes@@@Z 791ef394     citkcore:citkCore.dll
 0002:00000398       __imp_?MoveToY@CTEntity@citk@@QAEXM@Z 791ef398     citkcore:citkCore.dll
 0002:0000039c       __imp_?LoadFrom@CT3DText@citk@@QAE_NPBV12@@Z 791ef39c     citkcore:citkCore.dll
 0002:000003a0       __imp_?Load@CT3DText@citk@@QAE_NPBD_N@Z 791ef3a0     citkcore:citkCore.dll
 0002:000003a4       __imp_?UseViewportSpace@CT3DText@citk@@QAEXXZ 791ef3a4     citkcore:citkCore.dll
 0002:000003a8       __imp_?HorAlignLeft@CT3DText@citk@@QAEXXZ 791ef3a8     citkcore:citkCore.dll
 0002:000003ac       __imp_?VerAlignBottom@CT3DText@citk@@QAEXXZ 791ef3ac     citkcore:citkCore.dll
 0002:000003b0       __imp_?SetFontSize@CT3DText@citk@@QAEXMM@Z 791ef3b0     citkcore:citkCore.dll
 0002:000003b4       __imp_?SetFixedVerSpacing@CT3DText@citk@@QAEXM@Z 791ef3b4     citkcore:citkCore.dll
 0002:000003b8       __imp_??0CT3DText@citk@@QAE@XZ 791ef3b8     citkcore:citkCore.dll
 0002:000003bc       __imp_?_CD@CT3DText@citk@@SAPAVClassDesc@2@XZ 791ef3bc     citkcore:citkCore.dll
 0002:000003c0       __imp_??1CT3DText@citk@@MAE@XZ 791ef3c0     citkcore:citkCore.dll
 0002:000003c4       __imp_?GetCD@CT3DText@citk@@UBEPAVClassDesc@2@XZ 791ef3c4     citkcore:citkCore.dll
 0002:000003c8       __imp_?WriteToStream@CTMultiMtlGeometry@citk@@UAEXPAVCTStream@2@K@Z 791ef3c8     citkcore:citkCore.dll
 0002:000003cc       __imp_?ProcessChunk@CTMultiMtlGeometry@citk@@UAE_NPAVCTStream@2@K@Z 791ef3cc     citkcore:citkCore.dll
 0002:000003d0       __imp_?Copy@CT3DText@citk@@UBEPAVCTEntity@2@XZ 791ef3d0     citkcore:citkCore.dll
 0002:000003d4       __imp_?Illuminate@CTMultiMtlGeometry@citk@@UAE_NPAPAVCTLight@2@H@Z 791ef3d4     citkcore:citkCore.dll
 0002:000003d8       __imp_?WriteToStream@CTProcess@citk@@UAEXPAVCTStream@2@K@Z 791ef3d8     citkcore:citkCore.dll
 0002:000003dc       __imp_?ProcessChunk@CTProcess@citk@@UAE_NPAVCTStream@2@K@Z 791ef3dc     citkcore:citkCore.dll
 0002:000003e0       __imp_?DoAddProperties@CTProcess@citk@@MAEXXZ 791ef3e0     citkcore:citkCore.dll
 0002:000003e4       __imp_??0CTReferenced@citk@@QAE@XZ 791ef3e4     citkcore:citkCore.dll
 0002:000003e8       __imp_??1CTReferenced@citk@@UAE@XZ 791ef3e8     citkcore:citkCore.dll
 0002:000003ec       __imp_?_CD@CTReferenced@citk@@SAPAVClassDesc@2@XZ 791ef3ec     citkcore:citkCore.dll
 0002:000003f0       __imp_?RemoveFromWorld@CTEntity@citk@@QAEXJ@Z 791ef3f0     citkcore:citkCore.dll
 0002:000003f4       __imp_?SetParent@CTEntity@citk@@QAEXQAVCTGroup@2@@Z 791ef3f4     citkcore:citkCore.dll
 0002:000003f8       __imp_?SetObject@CTEntityController@citk@@QAEXPAVCTEntity@2@@Z 791ef3f8     citkcore:citkCore.dll
 0002:000003fc       __imp_?Enable@CTController@citk@@QAE_NXZ 791ef3fc     citkcore:citkCore.dll
 0002:00000400       __imp_?ResetTransform@CTEntity@citk@@QAEXXZ 791ef400     citkcore:citkCore.dll
 0002:00000404       __imp_?CreateBoundingVolume@CTEntity@citk@@QAEPAVCTShape@2@W4kind_t@CTProcess@2@@Z 791ef404     citkcore:citkCore.dll
 0002:00000408       __imp_?MoveBack@CTEntity@citk@@QAEXM@Z 791ef408     citkcore:citkCore.dll
 0002:0000040c       __imp_?SetEl@CTEntity@citk@@QAEXM@Z 791ef40c     citkcore:citkCore.dll
 0002:00000410       __imp_?SetFarDist@CTCamera@citk@@QAEXM@Z 791ef410     citkcore:citkCore.dll
 0002:00000414       __imp_?SetNearDist@CTCamera@citk@@QAEXM@Z 791ef414     citkcore:citkCore.dll
 0002:00000418       __imp_?FindRenderProperty@CTRenderState@citk@@QBEPAVCTRenderProperty@2@PAVClassDesc@2@@Z 791ef418     citkcore:citkCore.dll
 0002:0000041c       __imp_?GetClassDesc_CTLightingProperty@@YAPAVClassDesc@citk@@XZ 791ef41c     citkcore:citkCore.dll
 0002:00000420       __imp_?SetType@CTLight@citk@@QAEXW4lighttype_t@12@@Z 791ef420     citkcore:citkCore.dll
 0002:00000424       __imp_?SetDirection@CTEntity@citk@@QAEXABVVector3@citkTypes@@@Z 791ef424     citkcore:citkCore.dll
 0002:00000428       __imp_?IncludeObject@CTLight@citk@@QAEXPAVCTEntity@2@@Z 791ef428     citkcore:citkCore.dll
 0002:0000042c       __imp_??0CTGroup@citk@@QAE@PBDPAV01@@Z 791ef42c     citkcore:citkCore.dll
 0002:00000430       __imp_??0CTCamera@citk@@QAE@PBDPAVCTGroup@1@@Z 791ef430     citkcore:citkCore.dll
 0002:00000434       __imp_?_CD@CTCamera@citk@@SAPAVClassDesc@2@XZ 791ef434     citkcore:citkCore.dll
 0002:00000438       __imp_??0CTLight@citk@@QAE@PBDPAVCTGroup@1@@Z 791ef438     citkcore:citkCore.dll
 0002:0000043c       __imp_?_CD@CTLight@citk@@SAPAVClassDesc@2@XZ 791ef43c     citkcore:citkCore.dll
 0002:00000440       __imp_??0CTMotionController@citk@@QAE@XZ 791ef440     citkcore:citkCore.dll
 0002:00000444       __imp_?_CD@CTMotionController@citk@@SAPAVClassDesc@2@XZ 791ef444     citkcore:citkCore.dll
 0002:00000448       __imp_??1CTGroup@citk@@MAE@XZ 791ef448     citkcore:citkCore.dll
 0002:0000044c       __imp_??1CTLight@citk@@MAE@XZ 791ef44c     citkcore:citkCore.dll
 0002:00000450       __imp_?GetCD@CTGroup@citk@@UBEPAVClassDesc@2@XZ 791ef450     citkcore:citkCore.dll
 0002:00000454       __imp_?GetSizeEstimate@CTGroup@citk@@UAEIXZ 791ef454     citkcore:citkCore.dll
 0002:00000458       __imp_?WriteToStream@CTGroup@citk@@UAEXPAVCTStream@2@K@Z 791ef458     citkcore:citkCore.dll
 0002:0000045c       __imp_?ProcessChunk@CTGroup@citk@@UAE_NPAVCTStream@2@K@Z 791ef45c     citkcore:citkCore.dll
 0002:00000460       __imp_?Process@CTGroup@citk@@UAEXAAUProcessInfo_t@2@@Z 791ef460     citkcore:citkCore.dll
 0002:00000464       __imp_?Copy@CTGroup@citk@@UBEPAVCTEntity@2@XZ 791ef464     citkcore:citkCore.dll
 0002:00000468       __imp_?UpdateBoundingVolume@CTGroup@citk@@UAEPAVCTShape@2@W4kind_t@CTProcess@2@@Z 791ef468     citkcore:citkCore.dll
 0002:0000046c       __imp_?CheckWithRay@CTGroup@citk@@UAE_NAAVDTreePicker@2@ABVLine3@citkTypes@@@Z 791ef46c     citkcore:citkCore.dll
 0002:00000470       __imp_?UpdateRoot@CTGroup@citk@@UAEXXZ 791ef470     citkcore:citkCore.dll
 0002:00000474       __imp_?FindParent@CTGroup@citk@@UAEPAV12@QAV12@@Z 791ef474     citkcore:citkCore.dll
 0002:00000478       __imp_?FindParentByName@CTGroup@citk@@UAEPAV12@PBD@Z 791ef478     citkcore:citkCore.dll
 0002:0000047c       __imp_?FindChildByName@CTGroup@citk@@UAEPAVCTEntity@2@PBD@Z 791ef47c     citkcore:citkCore.dll
 0002:00000480       __imp_?FindChildByNameIC@CTGroup@citk@@UAEPAVCTEntity@2@PBD@Z 791ef480     citkcore:citkCore.dll
 0002:00000484       __imp_?FindChild@CTGroup@citk@@UAEPAVCTEntity@2@QAV32@@Z 791ef484     citkcore:citkCore.dll
 0002:00000488       __imp_?UpdateTreeWorldSpace@CTGroup@citk@@UAEXXZ 791ef488     citkcore:citkCore.dll
 0002:0000048c       __imp_?GetCD@CTLight@citk@@UBEPAVClassDesc@2@XZ 791ef48c     citkcore:citkCore.dll
 0002:00000490       __imp_?WriteToStream@CTLight@citk@@UAEXPAVCTStream@2@K@Z 791ef490     citkcore:citkCore.dll
 0002:00000494       __imp_?ProcessChunk@CTLight@citk@@UAE_NPAVCTStream@2@K@Z 791ef494     citkcore:citkCore.dll
 0002:00000498       __imp_?DoAddProperties@CTLight@citk@@MAEXXZ 791ef498     citkcore:citkCore.dll
 0002:0000049c       __imp_?Process@CTLight@citk@@UAEXAAUProcessInfo_t@2@@Z 791ef49c     citkcore:citkCore.dll
 0002:000004a0       __imp_?Copy@CTLight@citk@@UBEPAVCTEntity@2@XZ 791ef4a0     citkcore:citkCore.dll
 0002:000004a4       __imp_?UpdateBoundingVolume@CTLight@citk@@UAEPAVCTShape@2@W4kind_t@CTProcess@2@@Z 791ef4a4     citkcore:citkCore.dll
 0002:000004a8       __imp_?CheckWithRay@CTEntity@citk@@UAE_NAAVDTreePicker@2@ABVLine3@citkTypes@@@Z 791ef4a8     citkcore:citkCore.dll
 0002:000004ac       __imp_?GetCD@CTCamera@citk@@UBEPAVClassDesc@2@XZ 791ef4ac     citkcore:citkCore.dll
 0002:000004b0       __imp_?WriteToStream@CTCamera@citk@@UAEXPAVCTStream@2@K@Z 791ef4b0     citkcore:citkCore.dll
 0002:000004b4       __imp_?ProcessChunk@CTCamera@citk@@UAE_NPAVCTStream@2@K@Z 791ef4b4     citkcore:citkCore.dll
 0002:000004b8       __imp_?DoAddProperties@CTCamera@citk@@MAEXXZ 791ef4b8     citkcore:citkCore.dll
 0002:000004bc       __imp_?Process@CTEntity@citk@@UAEXAAUProcessInfo_t@2@@Z 791ef4bc     citkcore:citkCore.dll
 0002:000004c0       __imp_?Copy@CTCamera@citk@@UBEPAVCTEntity@2@XZ 791ef4c0     citkcore:citkCore.dll
 0002:000004c4       __imp_?UpdateBoundingVolume@CTEntity@citk@@UAEPAVCTShape@2@W4kind_t@CTProcess@2@@Z 791ef4c4     citkcore:citkCore.dll
 0002:000004c8       __imp_?GetCD@CTMotionController@citk@@UBEPAVClassDesc@2@XZ 791ef4c8     citkcore:citkCore.dll
 0002:000004cc       __imp_?WriteToStream@CTMotionController@citk@@UAEXPAVCTStream@2@K@Z 791ef4cc     citkcore:citkCore.dll
 0002:000004d0       __imp_?ProcessChunk@CTMotionController@citk@@UAE_NPAVCTStream@2@K@Z 791ef4d0     citkcore:citkCore.dll
 0002:000004d4       __imp_?DoAddProperties@CTMotionController@citk@@MAEXXZ 791ef4d4     citkcore:citkCore.dll
 0002:000004d8       __imp_?Reset@CTController@citk@@UAEXXZ 791ef4d8     citkcore:citkCore.dll
 0002:000004dc       __imp_?DoEnable@CTMotionController@citk@@MAE_NXZ 791ef4dc     citkcore:citkCore.dll
 0002:000004e0       __imp_?DoDisable@CTMotionController@citk@@MAEXXZ 791ef4e0     citkcore:citkCore.dll
 0002:000004e4       __imp_?GetMotionInfoSource@CTMotionController@citk@@UAEPAUMotionInfo_t@2@XZ 791ef4e4     citkcore:citkCore.dll
 0002:000004e8       __imp_?OnCollision@CTEntityController@citk@@UAEXPAVCTEntity@2@PAVVector3@citkTypes@@1@Z 791ef4e8     citkcore:citkCore.dll
 0002:000004ec       __imp_?Copy@CTMotionController@citk@@UBEPAVCTEntityController@2@XZ 791ef4ec     citkcore:citkCore.dll
 0002:000004f0       __imp_??1CTMotionController@citk@@UAE@XZ 791ef4f0     citkcore:citkCore.dll
 0002:000004f4       __imp_??1CTCamera@citk@@UAE@XZ 791ef4f4     citkcore:citkCore.dll
 0002:000004f8       __imp_?citk_CreateClassByName@@YAPAVCTBasic@citk@@PBD@Z 791ef4f8     citkcore:citkCore.dll
 0002:000004fc       __imp_?SetProperty@CTInterface@citk@@QAE_NPBD0@Z 791ef4fc     citkcore:citkCore.dll
 0002:00000500       __imp_?Import@CTImport@citk@@QAE_NPBD@Z 791ef500     citkcore:citkCore.dll
 0002:00000504       __imp_?GetTexture@CTBitmapImport@citk@@QBEPAVCTTexture@2@XZ 791ef504     citkcore:citkCore.dll
 0002:00000508       __imp_?DetachData@CTTexture@citk@@QAEPAVDBitmap@citkTypes@@XZ 791ef508     citkcore:citkCore.dll
 0002:0000050c       __imp_?GetPropertyByName@CTInterface@citk@@QAEPAVDProperty@2@PBD@Z 791ef50c     citkcore:citkCore.dll
 0002:00000510       __imp_?ToInt@DProperty@citk@@QBEJXZ 791ef510     citkcore:citkCore.dll
 0002:00000514       __imp_?SetMap@CTTextureProperty@citk@@QAEPAUTexStage_t@12@W4texmap_t@12@PAVCTTexture@2@@Z 791ef514     citkcore:citkCore.dll
 0002:00000518       __imp_??0CTTextureProperty@citk@@QAE@XZ 791ef518     citkcore:citkCore.dll
 0002:0000051c       __imp_?_CD@CTTextureProperty@citk@@SAPAVClassDesc@2@XZ 791ef51c     citkcore:citkCore.dll
 0002:00000520       __imp_??1CTTextureProperty@citk@@UAE@XZ 791ef520     citkcore:citkCore.dll
 0002:00000524       __imp_?GetCD@CTTextureProperty@citk@@UBEPAVClassDesc@2@XZ 791ef524     citkcore:citkCore.dll
 0002:00000528       __imp_?WriteToStream@CTTextureProperty@citk@@UAEXPAVCTStream@2@K@Z 791ef528     citkcore:citkCore.dll
 0002:0000052c       __imp_?ProcessChunk@CTTextureProperty@citk@@UAE_NPAVCTStream@2@K@Z 791ef52c     citkcore:citkCore.dll
 0002:00000530       __imp_?Clone@CTTextureProperty@citk@@UBEPAVCTRenderProperty@2@XZ 791ef530     citkcore:citkCore.dll
 0002:00000534       __imp_?_Combine@CTTextureProperty@citk@@UAE_NPBVCTRenderProperty@2@@Z 791ef534     citkcore:citkCore.dll
 0002:00000538       __imp_?_Compare@CTTextureProperty@citk@@UBE_NPBVCTRenderProperty@2@@Z 791ef538     citkcore:citkCore.dll
 0002:0000053c       __imp_??0CTEntity@citk@@QAE@PBDPAVCTGroup@1@@Z 791ef53c     citkcore:citkCore.dll
 0002:00000540       __imp_??1CTEntity@citk@@MAE@XZ 791ef540     citkcore:citkCore.dll
 0002:00000544       __imp_?Push@CTRenderState@citk@@QAEHPAV12@@Z 791ef544     citkcore:citkCore.dll
 0002:00000548       __imp_?Pop@CTRenderState@citk@@QAEXH@Z 791ef548     citkcore:citkCore.dll
 0002:0000054c       __imp_?_SetKind@CTProcess@citk@@QAEXK@Z 791ef54c     citkcore:citkCore.dll
 0002:00000550       __imp_?GetFlags@CTProcess@citk@@QBEKXZ 791ef550     citkcore:citkCore.dll
 0002:00000554       __imp_?UseBoundingVolume@CTEntity@citk@@QAEXPAVCTShape@2@W4kind_t@CTProcess@2@@Z 791ef554     citkcore:citkCore.dll
 0002:00000558       __imp_?ChangeParent@CTEntity@citk@@QAEXQAVCTGroup@2@@Z 791ef558     citkcore:citkCore.dll
 0002:0000055c       __imp_?_CD@CTEntity@citk@@SAPAVClassDesc@2@XZ 791ef55c     citkcore:citkCore.dll
 0002:00000560       __imp_?_CD@CTTreeProcessor@citk@@SAPAVClassDesc@2@XZ 791ef560     citkcore:citkCore.dll
 0002:00000564       __imp_?GetCD@CTBasic@citk@@UBEPAVClassDesc@2@XZ 791ef564     citkcore:citkCore.dll
 0002:00000568       __imp_??1CTBasic@citk@@MAE@XZ 791ef568     citkcore:citkCore.dll
 0002:0000056c       __imp_??0CTBasic@citk@@QAE@XZ 791ef56c     citkcore:citkCore.dll
 0002:00000570       __imp_?GetTree@CTTreeProcessor@citk@@QBEPAVCTEntity@2@XZ 791ef570     citkcore:citkCore.dll
 0002:00000574       __imp_?GetWorldPosition@CTEntity@citk@@QBEABVVector3@citkTypes@@XZ 791ef574     citkcore:citkCore.dll
 0002:00000578       __imp_?SetHint@CTEntity@citk@@QAEXK@Z 791ef578     citkcore:citkCore.dll
 0002:0000057c       __imp_?ClearHint@CTEntity@citk@@QAEXK@Z 791ef57c     citkcore:citkCore.dll
 0002:00000580       __imp_?Set@DProperty@citk@@QAEAAV12@PAXW4ptype_t@12@HPBDKK@Z 791ef580     citkcore:citkCore.dll
 0002:00000584       __imp_?SetCount@DProperty@citk@@QAEAAV12@H@Z 791ef584     citkcore:citkCore.dll
 0002:00000588       __imp_?_CD@CTBox@citk@@SAPAVClassDesc@2@XZ 791ef588     citkcore:citkCore.dll
 0002:0000058c       __imp_?WriteToStream@CTEntity@citk@@UAEXPAVCTStream@2@K@Z 791ef58c     citkcore:citkCore.dll
 0002:00000590       __imp_?ProcessChunk@CTEntity@citk@@UAE_NPAVCTStream@2@K@Z 791ef590     citkcore:citkCore.dll
 0002:00000594       __imp_?Copy@CTEntity@citk@@UBEPAV12@XZ 791ef594     citkcore:citkCore.dll
 0002:00000598       __imp_??1CTTreeProcessor@citk@@UAE@XZ 791ef598     citkcore:citkCore.dll
 0002:0000059c       __imp_??0CTTreeProcessor@citk@@QAE@XZ 791ef59c     citkcore:citkCore.dll
 0002:000005a0       __imp_??1CTPlugInLib@citk@@MAE@XZ 791ef5a0     citkcore:citkCore.dll
 0002:000005a4       __imp_?HandlesExtension@CTImportExport@citk@@UBE_NPBD@Z 791ef5a4     citkcore:citkCore.dll
 0002:000005a8       __imp_?TranslateErrorCode@CTLogged@citk@@UAE?AVString@citkTypes@@J@Z 791ef5a8     citkcore:citkCore.dll
 0002:000005ac       __imp_?OnPropertyChanged@CTInterface@citk@@MAEXAAVDProperty@2@@Z 791ef5ac     citkcore:citkCore.dll
 0002:000005b0       __imp_?DoAddProperties@CTLogged@citk@@MAEXXZ 791ef5b0     citkcore:citkCore.dll
 0002:000005b4       __imp_?GetPropertyDescription@CTInterface@citk@@UAEPBDAAVDProperty@2@@Z 791ef5b4     citkcore:citkCore.dll
 0002:000005b8       __imp_?WriteProperties@CTInterface@citk@@UAEXXZ 791ef5b8     citkcore:citkCore.dll
 0002:000005bc       __imp_?ReadProperties@CTInterface@citk@@UAEXXZ 791ef5bc     citkcore:citkCore.dll
 0002:000005c0       __imp_?GetConfigName@CTInterface@citk@@UAE?AVString@citkTypes@@XZ 791ef5c0     citkcore:citkCore.dll
 0002:000005c4       __imp_?DoUnregisterWithService@CTAggregated@citk@@MAE_NXZ 791ef5c4     citkcore:citkCore.dll
 0002:000005c8       __imp_?DoRegisterWithService@CTAggregated@citk@@MAE_NXZ 791ef5c8     citkcore:citkCore.dll
 0002:000005cc       __imp_?OnMessage@CTAggregated@citk@@UAEXHPBX@Z 791ef5cc     citkcore:citkCore.dll
 0002:000005d0       __imp_??0CTTexture@citk@@QAE@PBD@Z 791ef5d0     citkcore:citkCore.dll
 0002:000005d4       __imp_?Start@CTManager@citk@@QAE_NXZ 791ef5d4     citkcore:citkCore.dll
 0002:000005d8       __imp_?_CD@CTEngineManager@citk@@SAPAVClassDesc@2@XZ 791ef5d8     citkcore:citkCore.dll
 0002:000005dc       __imp_?citk_FindService@@YAPAVCTManager@citk@@PAVClassDesc@2@@Z 791ef5dc     citkcore:citkCore.dll
 0002:000005e0       __imp_?AddSubscriber@CTAggregated@citk@@QAEXPAVCTBasic@2@@Z 791ef5e0     citkcore:citkCore.dll
 0002:000005e4       __imp_?RemoveData@CTTexture@citk@@UAE_NXZ 791ef5e4     citkcore:citkCore.dll
 0002:000005e8       __imp_??0CTProcess@citk@@QAE@PBD@Z 791ef5e8     citkcore:citkCore.dll
 0002:000005ec       __imp_?Export@CTBitmapExport@citk@@QAE_NPBDPAVCTTexture@2@@Z 791ef5ec     citkcore:citkCore.dll
 0002:000005f0       __imp_?GrabBitmapFull@CTRenderTarget@citk@@QAEPAVDBitmap@citkTypes@@XZ 791ef5f0     citkcore:citkCore.dll
 0002:000005f4       __imp_?citk_Debug@@YAXPBDZZ 791ef5f4     citkcore:citkCore.dll
 0002:000005f8       __imp_?SetProperty@CTInterface@citk@@QAE_NPBDJ@Z 791ef5f8     citkcore:citkCore.dll
 0002:000005fc       __imp_?citk_CreateClassByNameIC@@YAPAVCTBasic@citk@@PBD@Z 791ef5fc     citkcore:citkCore.dll
 0002:00000600       __imp_?GetCD@CTBasicPtr@citk@@UBEPAVClassDesc@2@XZ 791ef600     citkcore:citkCore.dll
 0002:00000604       __imp_?_Release@DevicePtrStuff@citk@@KAXPAVCTDevice@2@@Z 791ef604     citkcore:citkCore.dll
 0002:00000608       __imp_?_ShareDevice@DevicePtrStuff@citk@@KAPAVCTDevice@2@PAV32@0@Z 791ef608     citkcore:citkCore.dll
 0002:0000060c       __imp_?_CD@CTTimer@citk@@SAPAVClassDesc@2@XZ 791ef60c     citkcore:citkCore.dll
 0002:00000610       __imp_?_ObtainDevice@DevicePtrStuff@citk@@KAPAVCTDevice@2@PAV32@KH_N@Z 791ef610     citkcore:citkCore.dll
 0002:00000614       __imp_?ChangePtr@CTBasicPtr@citk@@IAEPAVCTAggregated@2@PAV32@0@Z 791ef614     citkcore:citkCore.dll
 0002:00000618       __imp_?Start@CTDevice@citk@@QAE_NXZ 791ef618     citkcore:citkCore.dll
 0002:0000061c       __imp_??0CTBasicPtr@citk@@IAE@XZ 791ef61c     citkcore:citkCore.dll
 0002:00000620       __imp_?RemoveSubscriber@CTAggregated@citk@@QAEXPAVCTBasic@2@@Z 791ef620     citkcore:citkCore.dll
 0002:00000624       __imp_??1CTBasicPtr@citk@@UAE@XZ 791ef624     citkcore:citkCore.dll
 0002:00000628       __imp_?citk_Debug@@YAXABVString@citkTypes@@@Z 791ef628     citkcore:citkCore.dll
 0002:0000062c       __imp_??1CTController@citk@@UAE@XZ 791ef62c     citkcore:citkCore.dll
 0002:00000630       __imp_?DoDisable@CTController@citk@@MAEXXZ 791ef630     citkcore:citkCore.dll
 0002:00000634       __imp_?DoEnable@CTController@citk@@MAE_NXZ 791ef634     citkcore:citkCore.dll
 0002:00000638       __imp_?ProcessChunk@CTController@citk@@UAE_NPAVCTStream@2@K@Z 791ef638     citkcore:citkCore.dll
 0002:0000063c       __imp_?WriteToStream@CTController@citk@@UAEXPAVCTStream@2@K@Z 791ef63c     citkcore:citkCore.dll
 0002:00000640       __imp_?AddPropertyRO@CTInterface@citk@@IAEPAVDProperty@2@PBDPAVClassDesc@2@@Z 791ef640     citkcore:citkCore.dll
 0002:00000644       __imp_?_Set@DProperty@citk@@QAEAAV12@AA_N@Z 791ef644     citkcore:citkCore.dll
 0002:00000648       __imp_?AddProperty@CTInterface@citk@@IAEPAVDProperty@2@PBDPAVClassDesc@2@@Z 791ef648     citkcore:citkCore.dll
 0002:0000064c       __imp_?_Set@DProperty@citk@@QAEAAV12@AAM@Z 791ef64c     citkcore:citkCore.dll
 0002:00000650       __imp_?DoAddProperties@CTController@citk@@MAEXXZ 791ef650     citkcore:citkCore.dll
 0002:00000654       __imp_??0CTController@citk@@QAE@XZ 791ef654     citkcore:citkCore.dll
 0002:00000658       __imp_?_CD@CTController@citk@@SAPAVClassDesc@2@XZ 791ef658     citkcore:citkCore.dll
 0002:0000065c       __imp_??0CTBitmapImport@citk@@QAE@XZ 791ef65c     citkcore:citkCore.dll
 0002:00000660       __imp_??1CTBitmapImport@citk@@UAE@XZ 791ef660     citkcore:citkCore.dll
 0002:00000664       __imp_?IsKindOf@ClassDesc@citk@@QBE_NPAV12@@Z 791ef664     citkcore:citkCore.dll
 0002:00000668       __imp_??0DLinesFiller@citk@@QAE@XZ 791ef668     citkcore:citkCore.dll
 0002:0000066c       __imp_?ImportFromStream@CTImport@citk@@UAE_NPAVCTStream@2@@Z 791ef66c     citkcore:citkCore.dll
 0002:00000670       __imp_?CreateBrowseInfo@CTAggregated@citk@@UAEPAVCTBrowseInfo@2@PAV32@H@Z 791ef670     citkcore:citkCore.dll
 0002:00000674       __imp_?RestoreFileData@CTStreamed@citk@@UAE_NXZ 791ef674     citkcore:citkCore.dll
 0002:00000678       __imp_?ProcessChunk@CTNamed@citk@@UAE_NPAVCTStream@2@K@Z 791ef678     citkcore:citkCore.dll
 0002:0000067c       __imp_?WriteChunk@CTStreamed@citk@@UAEXPAVCTStream@2@K@Z 791ef67c     citkcore:citkCore.dll
 0002:00000680       __imp_?WriteToStream@CTNamed@citk@@UAEXPAVCTStream@2@K@Z 791ef680     citkcore:citkCore.dll
 0002:00000684       __imp_?Invalidate@CTStreamed@citk@@UAEXXZ 791ef684     citkcore:citkCore.dll
 0002:00000688       __imp_?GetSizeEstimate@CTNamed@citk@@UAEIXZ 791ef688     citkcore:citkCore.dll
 0002:0000068c       __imp_?OnDelete@CTAggregated@citk@@UAEXPAV12@@Z 791ef68c     citkcore:citkCore.dll
 0002:00000690       __imp_?Delete@CTAggregated@citk@@UAEXXZ 791ef690     citkcore:citkCore.dll
 0002:00000694       __imp_?SetData@CTTexture@citk@@QAE_NPAVDBitmap@citkTypes@@@Z 791ef694     citkcore:citkCore.dll
 0002:00000698       __imp_?GetClassDesc_CTTexture@@YAPAVClassDesc@citk@@XZ 791ef698     citkcore:citkCore.dll
 0002:0000069c       __imp_?RemoveRef@CTReferenced@citk@@QAEHXZ 791ef69c     citkcore:citkCore.dll
 0002:000006a0       __imp_?_CD@CTBitmapImport@citk@@SAPAVClassDesc@2@XZ 791ef6a0     citkcore:citkCore.dll
 0002:000006a4       __imp_??0CTPlugInLib@citk@@QAE@XZ 791ef6a4     citkcore:citkCore.dll
 0002:000006a8       __imp_?GetSizeEstimate@CTBasic@citk@@UAEIXZ 791ef6a8     citkcore:citkCore.dll
 0002:000006ac       __imp_?QueryInterface@CTBasic@citk@@UAE_NKPAPAX@Z 791ef6ac     citkcore:citkCore.dll
 0002:000006b0       __imp_?OnDelete@CTBasic@citk@@UAEXPAVCTAggregated@2@@Z 791ef6b0     citkcore:citkCore.dll
 0002:000006b4       __imp_?Delete@CTBasic@citk@@UAEXXZ 791ef6b4     citkcore:citkCore.dll
 0002:000006b8       __imp_?Delete@ClassDesc@citk@@UAEXPAX@Z 791ef6b8     citkcore:citkCore.dll
 0002:000006bc       __imp_?Create@ClassDesc@citk@@UAEPAXXZ 791ef6bc     citkcore:citkCore.dll
 0002:000006c0       __imp_?AddClass@CTPlugInLib@citk@@IAEXPAVClassDesc@2@@Z 791ef6c0     citkcore:citkCore.dll
 0002:000006c4       __imp_?RegisterClasses@CTPlugInLib@citk@@QAE_NXZ 791ef6c4     citkcore:citkCore.dll
 0002:000006c8       __imp_?_CD@CTPlugInLib@citk@@SAPAVClassDesc@2@XZ 791ef6c8     citkcore:citkCore.dll
 0002:000006cc       __imp_??0ClassDesc@citk@@QAE@XZ 791ef6cc     citkcore:citkCore.dll
 0002:000006d0       __imp_?AddVersion@CTPlugInLib@citk@@IAEXPBDH0@Z 791ef6d0     citkcore:citkCore.dll
 0002:000006d4       __imp_?Clone@CTWireFrameProperty@citk@@UBEPAVCTRenderProperty@2@XZ 791ef6d4     citkcore:citkCore.dll
 0002:000006d8       \177citkCore_NULL_THUNK_DATA 791ef6d8     citkcore:citkCore.dll
 0002:000006dc       ___guard_check_icall_fptr  791ef6dc     MSVCRT:guard_support.obj
 0002:000006e0       ___xc_a                    791ef6e0     MSVCRT:initializers.obj
 0002:00000738       ___xc_z                    791ef738     MSVCRT:initializers.obj
 0002:0000073c       ___xi_a                    791ef73c     MSVCRT:initializers.obj
 0002:00000744       ___xi_z                    791ef744     MSVCRT:initializers.obj
 0002:00000748       ___xl_a                    791ef748     MSVCRT:tlssup.obj
 0002:0000074c       ___xl_z                    791ef74c     MSVCRT:tlssup.obj
 0002:00000750       ___xp_a                    791ef750     MSVCRT:initializers.obj
 0002:00000754       ___xp_z                    791ef754     MSVCRT:initializers.obj
 0002:00000758       ___xt_a                    791ef758     MSVCRT:initializers.obj
 0002:0000075c       ___xt_z                    791ef75c     MSVCRT:initializers.obj
 0002:00000764       ??_7type_info@@6B@         791ef764     MSVCRT:std_type_info_static.obj
 0002:00000768       ??_C@_1EC@JIJBPKFM@?$AAa?$AAp?$AAi?$AA?9?$AAm?$AAs?$AA?9?$AAw?$AAi?$AAn?$AA?9?$AAc?$AAo?$AAr?$AAe?$AA?9?$AAs?$AAy?$AAn?$AAc?$AAh?$AA?9?$AAl?$AA1?$AA?9?$AA2?$AA?9?$AA0?$AA?4?$AAd?$AAl?$AAl@ 791ef768     MSVCRT:thread_safe_statics.obj
 0002:000007ac       ??_C@_1BK@MGMFAEKH@?$AAk?$AAe?$AAr?$AAn?$AAe?$AAl?$AA3?$AA2?$AA?4?$AAd?$AAl?$AAl?$AA?$AA@ 791ef7ac     MSVCRT:thread_safe_statics.obj
 0002:000007c8       ??_C@_0BM@HLJJNPAH@InitializeConditionVariable?$AA@ 791ef7c8     MSVCRT:thread_safe_statics.obj
 0002:000007e4       ??_C@_0BJ@JEBJOJFJ@SleepConditionVariableCS?$AA@ 791ef7e4     MSVCRT:thread_safe_statics.obj
 0002:00000800       ??_C@_0BJ@PGPPEPCC@WakeAllConditionVariable?$AA@ 791ef800     MSVCRT:thread_safe_statics.obj
 0002:0000081c       __pDefaultRawDllMain       791ef81c     MSVCRT:dll_dllmain.obj
 0002:0000081c       __pRawDllMain              791ef81c     MSVCRT:dll_dllmain.obj
 0002:00000824       ??_7exception@std@@6B@     791ef824     MSVCRT:throw_bad_alloc.obj
 0002:0000082c       ??_C@_0BC@EOODALEL@Unknown?5exception?$AA@ 791ef82c     MSVCRT:throw_bad_alloc.obj
 0002:00000844       ??_7bad_alloc@std@@6B@     791ef844     MSVCRT:throw_bad_alloc.obj
 0002:0000084c       ??_C@_0P@GHFPNOJB@bad?5allocation?$AA@ 791ef84c     MSVCRT:throw_bad_alloc.obj
 0002:00000860       ??_7bad_array_new_length@std@@6B@ 791ef860     MSVCRT:throw_bad_alloc.obj
 0002:00000868       ??_C@_0BF@KINCDENJ@bad?5array?5new?5length?$AA@ 791ef868     MSVCRT:throw_bad_alloc.obj
 0002:00000888       ??_C@_09CECOOHMD@citkUtils?$AA@ 791ef888     citkUtils.obj
 0002:00000894       ??_C@_0O@PNALBJBH@CITK_CORE_VER?$AA@ 791ef894     citkUtils.obj
 0002:000008a4       ??_C@_0P@HCDJPIJB@CITK_TYPES_VER?$AA@ 791ef8a4     citkUtils.obj
 0002:000008b4       ??_C@_0BJ@OPMOOBGL@Fri?5Mar?5?52?516?324?341?52018?$AA@ 791ef8b4     citkUtils.obj
 0002:000008d0       ??_C@_0BC@MHKDPGCH@citkUtils?5plug?9in?$AA@ 791ef8d0     citkUtils.obj
 0002:000008e4       ??_C@_0P@JKNIBLCL@CITK_UTILS_VER?$AA@ 791ef8e4     citkUtils.obj
 0002:000008f4       ??_C@_0BM@FHDMFKHL@citk?5Assertion?5in?5citkUtils?$AA@ 791ef8f4     citkUtils.obj
 0002:00000914       ??_7DMessageBox@citkTypes@@6B@ 791ef914     citkUtils.obj
 0002:00000920       ??_7CD_citkUtils@@6B@      791ef920     citkUtils.obj
 0002:00000930       ??_7citkUtils@@6B@         791ef930     citkUtils.obj
 0002:00000950       ??_C@_0N@NNFAMHHP@Bart?5de?5Boer?$AA@ 791ef950     Copyright.obj
 0002:00000960       ??_C@_0BO@CDGDHDAL@bart?4de?4boer?$EAcrystalinter?4com?$AA@ 791ef960     Copyright.obj
 0002:00000980       ??_C@_0BI@PCEDKBJN@Crystal?5Intertechnology?$AA@ 791ef980     Copyright.obj
 0002:00000998       ??_C@_0BF@GALGDNLA@www?4crystalinter?4com?$AA@ 791ef998     Copyright.obj
 0002:000009b4       ??_7CR_HBdB@@6B@           791ef9b4     Copyright.obj
 0002:000009c8       ??_C@_05GPLCCBII@noise?$AA@ 791ef9c8     citk_NoiseTexture.obj
 0002:000009d0       ??_C@_0P@GMLBJK@CTNoiseTexture?$AA@ 791ef9d0     citk_NoiseTexture.obj
 0002:000009e0       ??_C@_0P@HJMOOFJO@Noise?5Importer?$AA@ 791ef9e0     citk_NoiseTexture.obj
 0002:000009f0       ??_C@_04HEJAMPBG@citk?$AA@ 791ef9f0     citk_NoiseTexture.obj
 0002:000009f8       ??_C@_0O@KENGEILM@noise?3?1?1?$CFi?0?$CFi?$AA@ 791ef9f8     citk_NoiseTexture.obj
 0002:00000a0c       ??_7CTNoiseTexture@@6B@    791efa0c     citk_NoiseTexture.obj
 0002:00000a7c       ??_7CD_CTNoiseTexture@@6B@ 791efa7c     citk_NoiseTexture.obj
 0002:00000a9c       ?CDID_CTPIDController@@3KB 791efa9c     citk_PIDController.obj
 0002:00000ab4       ?CDID_CT2DFace@@3KB        791efab4     citk_2DFace.obj
 0002:00000acc       ?CDID_CTAbstractMaterial@@3KB 791efacc     citk_AbstractMaterials.obj
 0002:00000ae4       ?CDID_CTObjectBlinkerED@@3KB 791efae4     citk_Blinker.obj
 0002:00000ae8       ?CDID_CTObjectBlinker@@3KB 791efae8     citk_Blinker.obj
 0002:00000b00       ?CDID_CTMessageHud@@3KB    791efb00     citk_MessageHud.obj
 0002:00000b18       ?CDID_CTSoloViewer@@3KB    791efb18     citk_SoloViewer.obj
 0002:00000b30       ?CDID_CTToolTip@@3KB       791efb30     citk_ToolTip.obj
 0002:00000b48       ?CDID_IVPleh@@3KB          791efb48     citk_Volumes.obj
 0002:00000b60       ?MagicNumber@DHashTableHelper@citkTypes@@0KB 791efb60     citkTypes:citkt_HashTable.obj
 0002:00000b64       ??_C@_0BA@BBOOPCCI@CTPIDController?$AA@ 791efb64     citk_PIDController.obj
 0002:00000b74       ??_C@_0P@DNAGJNE@PID?5Controller?$AA@ 791efb74     citk_PIDController.obj
 0002:00000b84       ??_C@_02MGMKBJJI@KP?$AA@   791efb84     citk_PIDController.obj
 0002:00000b88       ??_C@_02FNMKLAIA@KI?$AA@   791efb88     citk_PIDController.obj
 0002:00000b8c       ??_C@_02OIGEMOMN@KD?$AA@   791efb8c     citk_PIDController.obj
 0002:00000b90       ??_C@_0M@IJMPNBF@ActuatorMin?$AA@ 791efb90     citk_PIDController.obj
 0002:00000b9c       ??_C@_0M@BKBHBJHK@ActuatorMax?$AA@ 791efb9c     citk_PIDController.obj
 0002:00000ba8       ??_C@_0BB@GLCLEHFP@ActuatorOverflow?$AA@ 791efba8     citk_PIDController.obj
 0002:00000bbc       ??_C@_0BE@JKKEPGFA@PID?5Controller?5Data?$AA@ 791efbbc     citk_PIDController.obj
 0002:00000bd4       ??_7CTPIDController@citk@@6B@ 791efbd4     citk_PIDController.obj
 0002:00000c38       ??_7CD_CTPIDController@@6B@ 791efc38     citk_PIDController.obj
 0002:00000c44       ??_C@_0BM@NOLMDKJA@Inside?5?$CFs?3?5?$CC?$CFs?$CC?5after?5?$CFi?5ms?$AA@ 791efc44     citk_Profiler.obj
 0002:00000c60       ??_C@_0M@LEAPPOOL@Entering?5?$CFs?$AA@ 791efc60     citk_Profiler.obj
 0002:00000c6c       ??_C@_0BH@GMMGLIPC@Exiting?5?$CFs?5after?5?$CFi?5ms?$AA@ 791efc6c     citk_Profiler.obj
 0002:00000c88       ??_7?$SafePtr@VCTTimer@citk@@@citk@@6B@ 791efc88     citk_Profiler.obj
 0002:00000ca4       ??_C@_00CNPNBAHC@?$AA@     791efca4     citk_Profiler.obj
 0002:00000ca8       ??_C@_0N@LGDGFOPF@CTJpegExport?$AA@ 791efca8     citk_Snapper.obj
 0002:00000cb8       ??_C@_0L@FJOAPCBE@FrameTimeL?$AA@ 791efcb8     citk_Snapper.obj
 0002:00000cc4       ??_C@_0BC@OMIEAKDO@ConstantFrameTime?$AA@ 791efcc4     citk_Snapper.obj
 0002:00000cd8       ??_C@_0N@CGNFCOLN@Exit?5Snapper?$AA@ 791efcd8     citk_Snapper.obj
 0002:00000ce8       ??_C@_0BI@HJIKOOIO@ServicePtr?$DM?$DO?3?3Acquire?$CI?$CJ?$AA@ 791efce8     citk_Snapper.obj
 0002:00000d04       ??_SCTTexture@citk@@6B@    791efd04     citk_Snapper.obj
 0002:00000d70       ??_7?$SafePtr@VCTRenderTarget@citk@@@citk@@6B@ 791efd70     citk_Snapper.obj
 0002:00000d8c       ??_C@_08ICICACLK@CT2DFace?$AA@ 791efd8c     citk_2DFace.obj
 0002:00000d98       ??_C@_08NAKADEKE@HUD?5Face?$AA@ 791efd98     citk_2DFace.obj
 0002:00000da8       ??_SCTAlphaProperty@citk@@6B@ 791efda8     citk_2DFace.obj
 0002:00000de4       ??_SCTRenderFlagsProperty@citk@@6B@ 791efde4     citk_2DFace.obj
 0002:00000e24       ??_SCTVertexData@citk@@6B@ 791efe24     citk_2DFace.obj
 0002:00000e64       ??_SCTRenderState@citk@@6B@ 791efe64     citk_2DFace.obj
 0002:00000ebc       ??_7CT2DFace@@6B@          791efebc     citk_2DFace.obj
 0002:00000f5c       ??_7CD_CT2DFace@@6B@       791eff5c     citk_2DFace.obj
 0002:00000f6c       ??_7?$SafePtr@VCTEntity@citk@@@citk@@6B@ 791eff6c     citk_2DFace.obj
 0002:00000f88       ??_C@_0BD@LNOELBPK@CTAbstractMaterial?$AA@ 791eff88     citk_AbstractMaterials.obj
 0002:00000f9c       ??_C@_0BC@KAIBMBIK@Abstract?5Material?$AA@ 791eff9c     citk_AbstractMaterials.obj
 0002:00000fb4       ??_SCTMaterialProperty@citk@@6B@ 791effb4     citk_AbstractMaterials.obj
 0002:00000ff0       ??_7CTAbstractMaterial@@6B@ 791efff0     citk_AbstractMaterials.obj
 0002:00001020       ??_7CD_CTAbstractMaterial@@6B@ 791f0020     citk_AbstractMaterials.obj
 0002:0000102c       ??_C@_0BA@IMIJNOFK@CTObjectBlinker?$AA@ 791f002c     citk_Blinker.obj
 0002:0000103c       ??_C@_0P@HKLBOJGG@Object?5Blinker?$AA@ 791f003c     citk_Blinker.obj
 0002:0000104c       ??_C@_0BC@MDHLADKO@CTObjectBlinkerED?$AA@ 791f004c     citk_Blinker.obj
 0002:00001060       ??_C@_0BC@DNPGBGED@Object?5Blinker?5ED?$AA@ 791f0060     citk_Blinker.obj
 0002:00001078       ??_SCTWireFrameProperty@citk@@6B@ 791f0078     citk_Blinker.obj
 0002:000010b4       ??_SCTGeometry@citk@@6B@   791f00b4     citk_Blinker.obj
 0002:00001150       ??_7CTObjectBlinker@@6B@   791f0150     citk_Blinker.obj
 0002:00001190       ??_7CD_CTObjectBlinkerED@@6B@ 791f0190     citk_Blinker.obj
 0002:000011a0       ??_7CTObjectBlinkerED@@6B@ 791f01a0     citk_Blinker.obj
 0002:000011d0       ??_7CD_CTObjectBlinker@@6B@ 791f01d0     citk_Blinker.obj
 0002:000011dc       ??_C@_0N@GKLLCDJA@CTMessageHud?$AA@ 791f01dc     citk_MessageHud.obj
 0002:000011ec       ??_C@_0M@LEFPABFE@Message?5HUD?$AA@ 791f01ec     citk_MessageHud.obj
 0002:000011f8       ??_C@_08MGAPHILC@lucidash?$AA@ 791f01f8     citk_MessageHud.obj
 0002:0000120c       ??_SCT3DText@citk@@6B@     791f020c     citk_MessageHud.obj
 0002:000012a8       ??_7CTMessageHud@@6B@      791f02a8     citk_MessageHud.obj
 0002:00001304       ??_7CD_CTMessageHud@@6B@   791f0304     citk_MessageHud.obj
 0002:00001310       ??_C@_0N@CGEMPBKM@CTSoloViewer?$AA@ 791f0310     citk_SoloViewer.obj
 0002:00001320       ??_C@_0BC@LELJFMGP@Object?5SoloViewer?$AA@ 791f0320     citk_SoloViewer.obj
 0002:00001334       ??_C@_0BA@PNAFEIKO@SoloViewer?5Root?$AA@ 791f0334     citk_SoloViewer.obj
 0002:00001344       ??_C@_0BG@FCMJJGMM@SoloViewer?5CamRotator?$AA@ 791f0344     citk_SoloViewer.obj
 0002:0000135c       ??_C@_0BG@KJOJCJHC@SoloViewer?5RotatorCam?$AA@ 791f035c     citk_SoloViewer.obj
 0002:0000137c       ??_SCTMotionController@citk@@6B@ 791f037c     citk_SoloViewer.obj
 0002:000013ec       ??_SCTLight@citk@@6B@      791f03ec     citk_SoloViewer.obj
 0002:00001484       ??_SCTCamera@citk@@6B@     791f0484     citk_SoloViewer.obj
 0002:0000151c       ??_SCTGroup@citk@@6B@      791f051c     citk_SoloViewer.obj
 0002:000015b4       ??_7CD_CTSoloViewer@@6B@   791f05b4     citk_SoloViewer.obj
 0002:000015c4       ??_7CTSoloViewer@@6B@      791f05c4     citk_SoloViewer.obj
 0002:000015dc       ??_C@_09GDOCMMAP@CTToolTip?$AA@ 791f05dc     citk_ToolTip.obj
 0002:000015e8       ??_C@_07LPHJNHMJ@ToolTip?$AA@ 791f05e8     citk_ToolTip.obj
 0002:000015f0       ??_C@_0N@EENMFBFK@Trebuchet?5MS?$AA@ 791f05f0     citk_ToolTip.obj
 0002:00001600       ??_C@_0P@DMJAPKFO@CTText32Import?$AA@ 791f0600     citk_ToolTip.obj
 0002:00001610       ??_C@_04OAONMBMN@DimX?$AA@ 791f0610     citk_ToolTip.obj
 0002:00001618       ??_C@_04PJPGPAIM@DimY?$AA@ 791f0618     citk_ToolTip.obj
 0002:00001620       ??_C@_07BOHJDOJD@MarginX?$AA@ 791f0620     citk_ToolTip.obj
 0002:00001628       ??_C@_07HGCAPNC@MarginY?$AA@ 791f0628     citk_ToolTip.obj
 0002:00001630       ??_C@_06EFOLKHBI@Power2?$AA@ 791f0630     citk_ToolTip.obj
 0002:00001638       ??_C@_08MKFDOKHL@FontName?$AA@ 791f0638     citk_ToolTip.obj
 0002:00001644       ??_C@_08IOPOCEFC@FontSize?$AA@ 791f0644     citk_ToolTip.obj
 0002:00001650       ??_C@_07DOPBDEGI@text?3?1?1?$AA@ 791f0650     citk_ToolTip.obj
 0002:00001658       ??_C@_07JALFMLIO@XPixels?$AA@ 791f0658     citk_ToolTip.obj
 0002:00001660       ??_C@_07FMBPMLBA@YPixels?$AA@ 791f0660     citk_ToolTip.obj
 0002:0000166c       ??_SCTTextureProperty@citk@@6B@ 791f066c     citk_ToolTip.obj
 0002:000016a8       ??_7CTToolTip@@6B@         791f06a8     citk_ToolTip.obj
 0002:00001748       ??_7CD_CTToolTip@@6B@      791f0748     citk_ToolTip.obj
 0002:00001754       ??_C@_06MDAMJENF@IVPleh?$AA@ 791f0754     citk_Volumes.obj
 0002:0000175c       ??_C@_04JDAGGHPG@Pleh?$AA@ 791f075c     citk_Volumes.obj
 0002:00001764       ??_C@_0BA@CMMIMFPM@IVTreeProcessor?$AA@ 791f0764     citk_Volumes.obj
 0002:00001774       ??_C@_06FAFIOHKA@Reject?$AA@ 791f0774     citk_Volumes.obj
 0002:0000177c       ??_C@_0BI@OLGAAAGH@INIT?5OF?5IVTREEPROCESSOR?$AA@ 791f077c     citk_Volumes.obj
 0002:00001794       ??_C@_0P@FPJDNPHO@?$CFix?$CFi?5L?$CFi?5?5B?$CFi?$AA@ 791f0794     citk_Volumes.obj
 0002:000017a4       ??_C@_08OJHFBMBJ@GridRoot?$AA@ 791f07a4     citk_Volumes.obj
 0002:000017b0       ??_C@_06IGLEKLEK@Levels?$AA@ 791f07b0     citk_Volumes.obj
 0002:000017b8       ??_C@_07FCLPNLJ@SubDivs?$AA@ 791f07b8     citk_Volumes.obj
 0002:000017c0       ??_C@_07BKLOHOEN@OctTree?$AA@ 791f07c0     citk_Volumes.obj
 0002:000017c8       ??_C@_06NOADDNNE@Center?$AA@ 791f07c8     citk_Volumes.obj
 0002:000017d0       ??_C@_06JMBGOECH@SDSize?$AA@ 791f07d0     citk_Volumes.obj
 0002:000017dc       ??_7?$SafeArray@VCTGroup@citk@@@citk@@6B@ 791f07dc     citk_Volumes.obj
 0002:000017f8       ??_7?$SafeArray@VCTEntity@citk@@@citk@@6B@ 791f07f8     citk_Volumes.obj
 0002:00001814       ??_7IVTreeProcessor@@6B@   791f0814     citk_Volumes.obj
 0002:0000187c       ??_7CD_IVTreeProcessor@@6B@ 791f087c     citk_Volumes.obj
 0002:0000188c       ??_7CD_IVPleh@@6B@         791f088c     citk_Volumes.obj
 0002:0000189c       ??_7IVPleh@@6B@            791f089c     citk_Volumes.obj
 0002:00001930       ??_C@_0BK@MFIHKLJM@DThread?3?5dummy?5ThreadProc?$AA@ 791f0930     citkTypes:citkt_Thread_Win32.obj
 0002:00001950       ??_7DThread@citkTypes@@6B@ 791f0950     citkTypes:citkt_Thread_Win32.obj
 0002:00001958       __real@00000000            791f0958     citk_2DFace.obj
 0002:0000195c       __real@3a83126f            791f095c     citk_2DFace.obj
 0002:00001960       __real@3b808081            791f0960     citk_ToolTip.obj
 0002:00001964       __real@3c23d70a            791f0964     citk_SoloViewer.obj
 0002:00001968       __real@3e2aaaab            791f0968     citk_Volumes.obj
 0002:0000196c       __real@3e800000            791f096c     citk_Blinker.obj
 0002:00001970       __real@3f000000            791f0970     citk_2DFace.obj
 0002:00001974       __real@3f70a3d7            791f0974     citk_SoloViewer.obj
 0002:00001978       __real@3f800000            791f0978     citk_Volumes.obj
 0002:00001980       __real@3fe0000000000000    791f0980     citk_Volumes.obj
 0002:00001988       __real@3ff0000000000000    791f0988     citk_2DFace.obj
 0002:00001990       __real@41200000            791f0990     citk_SoloViewer.obj
 0002:00001994       __real@41a00000            791f0994     citk_Volumes.obj
 0002:00001998       __real@42c80000            791f0998     citk_SoloViewer.obj
 0002:0000199c       __real@43160000            791f099c     citk_Volumes.obj
 0002:000019a0       __real@43380000000000ff    791f09a0     citk_ToolTip.obj
 0002:000019a8       __real@447a0000            791f09a8     citk_Snapper.obj
 0002:000019ac       __real@7f7fffff            791f09ac     citk_AxisTracker.obj
 0002:000019b0       __real@bf800000            791f09b0     citk_AxisTracker.obj
 0002:000019b8       __real@bfb999999999999a    791f09b8     citk_MessageHud.obj
 0002:000019c0       __real@ff7fffff            791f09c0     citk_AxisTracker.obj
 0002:000019d0       __xmm@7fffffff7fffffff7fffffff7fffffff 791f09d0     citk_2DFace.obj
 0002:000019e0       __xmm@80000000800000008000000080000000 791f09e0     citk_AxisTracker.obj
 0002:00001a48       __load_config_used         791f0a48     MSVCRT:loadcfg.obj
 0002:00001ae8       __tls_used                 791f0ae8     MSVCRT:tlssup.obj
 0002:00001b00       ??_R4type_info@@6B@        791f0b00     MSVCRT:std_type_info_static.obj
 0002:00001b14       ??_R3type_info@@8          791f0b14     MSVCRT:std_type_info_static.obj
 0002:00001b24       ??_R2type_info@@8          791f0b24     MSVCRT:std_type_info_static.obj
 0002:00001b2c       ??_R1A@?0A@EA@type_info@@8 791f0b2c     MSVCRT:std_type_info_static.obj
 0002:00001b48       ??_R4exception@std@@6B@    791f0b48     MSVCRT:throw_bad_alloc.obj
 0002:00001b5c       ??_R3exception@std@@8      791f0b5c     MSVCRT:throw_bad_alloc.obj
 0002:00001b6c       ??_R2exception@std@@8      791f0b6c     MSVCRT:throw_bad_alloc.obj
 0002:00001b74       ??_R1A@?0A@EA@exception@std@@8 791f0b74     MSVCRT:throw_bad_alloc.obj
 0002:00001b90       ??_R4bad_alloc@std@@6B@    791f0b90     MSVCRT:throw_bad_alloc.obj
 0002:00001ba4       ??_R3bad_alloc@std@@8      791f0ba4     MSVCRT:throw_bad_alloc.obj
 0002:00001bb4       ??_R2bad_alloc@std@@8      791f0bb4     MSVCRT:throw_bad_alloc.obj
 0002:00001bc0       ??_R1A@?0A@EA@bad_alloc@std@@8 791f0bc0     MSVCRT:throw_bad_alloc.obj
 0002:00001bdc       ??_R4bad_array_new_length@std@@6B@ 791f0bdc     MSVCRT:throw_bad_alloc.obj
 0002:00001bf0       ??_R3bad_array_new_length@std@@8 791f0bf0     MSVCRT:throw_bad_alloc.obj
 0002:00001c00       ??_R2bad_array_new_length@std@@8 791f0c00     MSVCRT:throw_bad_alloc.obj
 0002:00001c10       ??_R1A@?0A@EA@bad_array_new_length@std@@8 791f0c10     MSVCRT:throw_bad_alloc.obj
 0002:00001c2c       ??_R2DMessageBox@citkTypes@@8 791f0c2c     citkUtils.obj
 0002:00001c38       ??_R2DThread@citkTypes@@8  791f0c38     citkUtils.obj
 0002:00001c40       ??_R2citkUtils@@8          791f0c40     citkUtils.obj
 0002:00001c50       ??_R2CTPlugInLib@citk@@8   791f0c50     citkUtils.obj
 0002:00001c5c       ??_R2CD_citkUtils@@8       791f0c5c     citkUtils.obj
 0002:00001c68       ??_R2ClassDesc@citk@@8     791f0c68     citkUtils.obj
 0002:00001c70       ??_R1A@?0A@EN@DThread@citkTypes@@8 791f0c70     citkUtils.obj
 0002:00001c8c       ??_R1A@?0A@EA@DMessageBox@citkTypes@@8 791f0c8c     citkUtils.obj
 0002:00001ca8       ??_R1A@?0A@EA@DThread@citkTypes@@8 791f0ca8     citkUtils.obj
 0002:00001cc4       ??_R1A@?0A@EA@citkUtils@@8 791f0cc4     citkUtils.obj
 0002:00001ce0       ??_R2CTBasic@citk@@8       791f0ce0     citkUtils.obj
 0002:00001ce8       ??_R3CTBasic@citk@@8       791f0ce8     citkUtils.obj
 0002:00001cf8       ??_R1A@?0A@EA@CTBasic@citk@@8 791f0cf8     citkUtils.obj
 0002:00001d14       ??_R1A@?0A@EA@CTPlugInLib@citk@@8 791f0d14     citkUtils.obj
 0002:00001d30       ??_R1A@?0A@EA@CD_citkUtils@@8 791f0d30     citkUtils.obj
 0002:00001d4c       ??_R1A@?0A@EA@ClassDesc@citk@@8 791f0d4c     citkUtils.obj
 0002:00001d68       ??_R3DThread@citkTypes@@8  791f0d68     citkUtils.obj
 0002:00001d78       ??_R3DMessageBox@citkTypes@@8 791f0d78     citkUtils.obj
 0002:00001d88       ??_R3CTPlugInLib@citk@@8   791f0d88     citkUtils.obj
 0002:00001d98       ??_R3citkUtils@@8          791f0d98     citkUtils.obj
 0002:00001da8       ??_R3ClassDesc@citk@@8     791f0da8     citkUtils.obj
 0002:00001db8       ??_R3CD_citkUtils@@8       791f0db8     citkUtils.obj
 0002:00001dc8       ??_R4DMessageBox@citkTypes@@6B@ 791f0dc8     citkUtils.obj
 0002:00001ddc       ??_R4citkUtils@@6B@        791f0ddc     citkUtils.obj
 0002:00001df0       ??_R4CD_citkUtils@@6B@     791f0df0     citkUtils.obj
 0002:00001e04       ??_R2CR_HBdB@@8            791f0e04     Copyright.obj
 0002:00001e10       ??_R2Copyright@citk@@8     791f0e10     Copyright.obj
 0002:00001e18       ??_R1A@?0A@EA@CR_HBdB@@8   791f0e18     Copyright.obj
 0002:00001e34       ??_R1A@?0A@EA@Copyright@citk@@8 791f0e34     Copyright.obj
 0002:00001e50       ??_R3CR_HBdB@@8            791f0e50     Copyright.obj
 0002:00001e60       ??_R3Copyright@citk@@8     791f0e60     Copyright.obj
 0002:00001e70       ??_R4CR_HBdB@@6B@          791f0e70     Copyright.obj
 0002:00001e84       ??_R2CTNoiseTexture@@8     791f0e84     citk_NoiseTexture.obj
 0002:00001eb4       ??_R2CTBitmapImport@citk@@8 791f0eb4     citk_NoiseTexture.obj
 0002:00001ee0       ??_R2CTImport@citk@@8      791f0ee0     citk_NoiseTexture.obj
 0002:00001f08       ??_R2CTImportExport@citk@@8 791f0f08     citk_NoiseTexture.obj
 0002:00001f2c       ??_R2CTLogged@citk@@8      791f0f2c     citk_NoiseTexture.obj
 0002:00001f4c       ??_R2CTNamed@citk@@8       791f0f4c     citk_NoiseTexture.obj
 0002:00001f68       ??_R2CTInterface@citk@@8   791f0f68     citk_NoiseTexture.obj
 0002:00001f80       ??_R2CD_CTNoiseTexture@@8  791f0f80     citk_NoiseTexture.obj
 0002:00001f8c       ??_R1A@?0A@EA@CTNoiseTexture@@8 791f0f8c     citk_NoiseTexture.obj
 0002:00001fa8       ??_R1A@?0A@EA@CTBitmapImport@citk@@8 791f0fa8     citk_NoiseTexture.obj
 0002:00001fc4       ??_R1A@?0A@EA@CTImport@citk@@8 791f0fc4     citk_NoiseTexture.obj
 0002:00001fe0       ??_R1A@?0A@EA@CTImportExport@citk@@8 791f0fe0     citk_NoiseTexture.obj
 0002:00001ffc       ??_R1A@?0A@EA@CTLogged@citk@@8 791f0ffc     citk_NoiseTexture.obj
 0002:00002018       ??_R1A@?0A@EA@CTNamed@citk@@8 791f1018     citk_NoiseTexture.obj
 0002:00002034       ??_R2CTStreamed@citk@@8    791f1034     citk_NoiseTexture.obj
 0002:00002044       ??_R3CTStreamed@citk@@8    791f1044     citk_NoiseTexture.obj
 0002:00002054       ??_R1A@?0A@EA@CTStreamed@citk@@8 791f1054     citk_NoiseTexture.obj
 0002:00002070       ??_R2CTReferenced@citk@@8  791f1070     citk_NoiseTexture.obj
 0002:0000207c       ??_R3CTReferenced@citk@@8  791f107c     citk_NoiseTexture.obj
 0002:0000208c       ??_R1A@?0A@EA@CTReferenced@citk@@8 791f108c     citk_NoiseTexture.obj
 0002:000020a8       ??_R2CTAggregated@citk@@8  791f10a8     citk_NoiseTexture.obj
 0002:000020bc       ??_R3CTAggregated@citk@@8  791f10bc     citk_NoiseTexture.obj
 0002:000020cc       ??_R1A@?0A@EA@CTAggregated@citk@@8 791f10cc     citk_NoiseTexture.obj
 0002:000020e8       ??_R1A@?0A@EA@CTInterface@citk@@8 791f10e8     citk_NoiseTexture.obj
 0002:00002104       ??_R1A@?0A@EA@CD_CTNoiseTexture@@8 791f1104     citk_NoiseTexture.obj
 0002:00002120       ??_R3CTBitmapImport@citk@@8 791f1120     citk_NoiseTexture.obj
 0002:00002130       ??_R3CTImport@citk@@8      791f1130     citk_NoiseTexture.obj
 0002:00002140       ??_R3CTImportExport@citk@@8 791f1140     citk_NoiseTexture.obj
 0002:00002150       ??_R3CTLogged@citk@@8      791f1150     citk_NoiseTexture.obj
 0002:00002160       ??_R3CTNamed@citk@@8       791f1160     citk_NoiseTexture.obj
 0002:00002170       ??_R3CTInterface@citk@@8   791f1170     citk_NoiseTexture.obj
 0002:00002180       ??_R3CTNoiseTexture@@8     791f1180     citk_NoiseTexture.obj
 0002:00002190       ??_R3CD_CTNoiseTexture@@8  791f1190     citk_NoiseTexture.obj
 0002:000021a0       ??_R4CTNoiseTexture@@6B@   791f11a0     citk_NoiseTexture.obj
 0002:000021b4       ??_R4CD_CTNoiseTexture@@6B@ 791f11b4     citk_NoiseTexture.obj
 0002:000021c8       ??_R2CTPIDController@citk@@8 791f11c8     citk_PIDController.obj
 0002:000021ec       ??_R2CTController@citk@@8  791f11ec     citk_PIDController.obj
 0002:0000220c       ??_R2CD_CTPIDController@@8 791f120c     citk_PIDController.obj
 0002:00002218       ??_R1A@?0A@EA@CTPIDController@citk@@8 791f1218     citk_PIDController.obj
 0002:00002234       ??_R1A@?0A@EA@CTController@citk@@8 791f1234     citk_PIDController.obj
 0002:00002250       ??_R1A@?0A@EA@CD_CTPIDController@@8 791f1250     citk_PIDController.obj
 0002:0000226c       ??_R3CTController@citk@@8  791f126c     citk_PIDController.obj
 0002:0000227c       ??_R3CTPIDController@citk@@8 791f127c     citk_PIDController.obj
 0002:0000228c       ??_R3CD_CTPIDController@@8 791f128c     citk_PIDController.obj
 0002:0000229c       ??_R4CTPIDController@citk@@6B@ 791f129c     citk_PIDController.obj
 0002:000022b0       ??_R4CD_CTPIDController@@6B@ 791f12b0     citk_PIDController.obj
 0002:000022c4       ??_R2?$SafePtr@VCTTimer@citk@@@citk@@8 791f12c4     citk_Profiler.obj
 0002:000022d4       ??_R2CTBasicPtr@citk@@8    791f12d4     citk_Profiler.obj
 0002:000022e0       ??_R3CTBasicPtr@citk@@8    791f12e0     citk_Profiler.obj
 0002:000022f0       ??_R1A@?0A@EA@CTBasicPtr@citk@@8 791f12f0     citk_Profiler.obj
 0002:0000230c       ??_R1A@?0A@EA@?$SafePtr@VCTTimer@citk@@@citk@@8 791f130c     citk_Profiler.obj
 0002:00002328       ??_R3?$SafePtr@VCTTimer@citk@@@citk@@8 791f1328     citk_Profiler.obj
 0002:00002338       ??_R4?$SafePtr@VCTTimer@citk@@@citk@@6B@ 791f1338     citk_Profiler.obj
 0002:0000234c       ??_R2?$SafePtr@VCTRenderTarget@citk@@@citk@@8 791f134c     citk_Snapper.obj
 0002:0000235c       ??_R2CTTexture@citk@@8     791f135c     citk_Snapper.obj
 0002:00002380       ??_R2CTCached@citk@@8      791f1380     citk_Snapper.obj
 0002:000023a0       ??_R1A@?0A@EA@?$SafePtr@VCTRenderTarget@citk@@@citk@@8 791f13a0     citk_Snapper.obj
 0002:000023bc       ??_R1A@?0A@EA@CTTexture@citk@@8 791f13bc     citk_Snapper.obj
 0002:000023d8       ??_R1A@?0A@EA@CTCached@citk@@8 791f13d8     citk_Snapper.obj
 0002:000023f4       ??_R3?$SafePtr@VCTRenderTarget@citk@@@citk@@8 791f13f4     citk_Snapper.obj
 0002:00002404       ??_R3CTCached@citk@@8      791f1404     citk_Snapper.obj
 0002:00002414       ??_R3CTTexture@citk@@8     791f1414     citk_Snapper.obj
 0002:00002424       ??_R4?$SafePtr@VCTRenderTarget@citk@@@citk@@6B@ 791f1424     citk_Snapper.obj
 0002:00002438       ??_R4CTTexture@citk@@6B@   791f1438     citk_Snapper.obj
 0002:0000244c       ??_R2CT2DFace@@8           791f144c     citk_2DFace.obj
 0002:00002478       ??_R2CTGeometry@citk@@8    791f1478     citk_2DFace.obj
 0002:000024a0       ??_R2CTEntity@citk@@8      791f14a0     citk_2DFace.obj
 0002:000024c4       ??_R2CTProcess@citk@@8     791f14c4     citk_2DFace.obj
 0002:000024e4       ??_R2CD_CT2DFace@@8        791f14e4     citk_2DFace.obj
 0002:000024f0       ??_R2CTAlphaProperty@citk@@8 791f14f0     citk_2DFace.obj
 0002:00002508       ??_R2CTRenderFlagsProperty@citk@@8 791f1508     citk_2DFace.obj
 0002:00002520       ??_R2CTRenderProperty@citk@@8 791f1520     citk_2DFace.obj
 0002:00002534       ??_R2CTRenderState@citk@@8 791f1534     citk_2DFace.obj
 0002:00002554       ??_R1A@?0A@EA@CT2DFace@@8  791f1554     citk_2DFace.obj
 0002:00002570       ??_R1A@?0A@EA@CTGeometry@citk@@8 791f1570     citk_2DFace.obj
 0002:0000258c       ??_R1A@?0A@EA@CTEntity@citk@@8 791f158c     citk_2DFace.obj
 0002:000025a8       ??_R1A@?0A@EA@CTProcess@citk@@8 791f15a8     citk_2DFace.obj
 0002:000025c4       ??_R1A@?0A@EA@CD_CT2DFace@@8 791f15c4     citk_2DFace.obj
 0002:000025e0       ??_R1A@?0A@EA@CTAlphaProperty@citk@@8 791f15e0     citk_2DFace.obj
 0002:000025fc       ??_R1A@?0A@EA@CTRenderFlagsProperty@citk@@8 791f15fc     citk_2DFace.obj
 0002:00002618       ??_R1A@?0A@EA@CTRenderProperty@citk@@8 791f1618     citk_2DFace.obj
 0002:00002634       ??_R1A@?0A@EA@CTRenderState@citk@@8 791f1634     citk_2DFace.obj
 0002:00002650       ??_R3CTGeometry@citk@@8    791f1650     citk_2DFace.obj
 0002:00002660       ??_R3CTEntity@citk@@8      791f1660     citk_2DFace.obj
 0002:00002670       ??_R3CTProcess@citk@@8     791f1670     citk_2DFace.obj
 0002:00002680       ??_R3CT2DFace@@8           791f1680     citk_2DFace.obj
 0002:00002690       ??_R3CD_CT2DFace@@8        791f1690     citk_2DFace.obj
 0002:000026a0       ??_R3CTAlphaProperty@citk@@8 791f16a0     citk_2DFace.obj
 0002:000026b0       ??_R3CTRenderProperty@citk@@8 791f16b0     citk_2DFace.obj
 0002:000026c0       ??_R3CTRenderFlagsProperty@citk@@8 791f16c0     citk_2DFace.obj
 0002:000026d0       ??_R3CTRenderState@citk@@8 791f16d0     citk_2DFace.obj
 0002:000026e0       ??_R4CT2DFace@@6B@         791f16e0     citk_2DFace.obj
 0002:000026f4       ??_R4CD_CT2DFace@@6B@      791f16f4     citk_2DFace.obj
 0002:00002708       ??_R4CTAlphaProperty@citk@@6B@ 791f1708     citk_2DFace.obj
 0002:0000271c       ??_R4CTRenderFlagsProperty@citk@@6B@ 791f171c     citk_2DFace.obj
 0002:00002730       ??_R4CTRenderState@citk@@6B@ 791f1730     citk_2DFace.obj
 0002:00002744       ??_R1A@?0A@EA@CTVertexData@citk@@8 791f1744     citk_2DFace.obj
 0002:00002760       ??_R2CTVertexData@citk@@8  791f1760     citk_2DFace.obj
 0002:00002778       ??_R3CTVertexData@citk@@8  791f1778     citk_2DFace.obj
 0002:00002788       ??_R4CTVertexData@citk@@6B@ 791f1788     citk_2DFace.obj
 0002:0000279c       ??_R1A@?0A@EA@?$SafePtr@VCTEntity@citk@@@citk@@8 791f179c     citk_2DFace.obj
 0002:000027b8       ??_R2?$SafePtr@VCTEntity@citk@@@citk@@8 791f17b8     citk_2DFace.obj
 0002:000027c8       ??_R3?$SafePtr@VCTEntity@citk@@@citk@@8 791f17c8     citk_2DFace.obj
 0002:000027d8       ??_R4?$SafePtr@VCTEntity@citk@@@citk@@6B@ 791f17d8     citk_2DFace.obj
 0002:000027ec       ??_R2CTAbstractMaterial@@8 791f17ec     citk_AbstractMaterials.obj
 0002:00002804       ??_R2CTExtraData@citk@@8   791f1804     citk_AbstractMaterials.obj
 0002:00002818       ??_R2CD_CTAbstractMaterial@@8 791f1818     citk_AbstractMaterials.obj
 0002:00002824       ??_R2CTMaterialProperty@citk@@8 791f1824     citk_AbstractMaterials.obj
 0002:0000283c       ??_R1A@?0A@EA@CTAbstractMaterial@@8 791f183c     citk_AbstractMaterials.obj
 0002:00002858       ??_R1A@?0A@EA@CTExtraData@citk@@8 791f1858     citk_AbstractMaterials.obj
 0002:00002874       ??_R1A@?0A@EA@CD_CTAbstractMaterial@@8 791f1874     citk_AbstractMaterials.obj
 0002:00002890       ??_R1A@?0A@EA@CTMaterialProperty@citk@@8 791f1890     citk_AbstractMaterials.obj
 0002:000028ac       ??_R3CTExtraData@citk@@8   791f18ac     citk_AbstractMaterials.obj
 0002:000028bc       ??_R3CTAbstractMaterial@@8 791f18bc     citk_AbstractMaterials.obj
 0002:000028cc       ??_R3CD_CTAbstractMaterial@@8 791f18cc     citk_AbstractMaterials.obj
 0002:000028dc       ??_R3CTMaterialProperty@citk@@8 791f18dc     citk_AbstractMaterials.obj
 0002:000028ec       ??_R4CTAbstractMaterial@@6B@ 791f18ec     citk_AbstractMaterials.obj
 0002:00002900       ??_R4CD_CTAbstractMaterial@@6B@ 791f1900     citk_AbstractMaterials.obj
 0002:00002914       ??_R4CTMaterialProperty@citk@@6B@ 791f1914     citk_AbstractMaterials.obj
 0002:00002928       ??_R2CTObjectBlinkerED@@8  791f1928     citk_Blinker.obj
 0002:00002940       ??_R2CD_CTObjectBlinkerED@@8 791f1940     citk_Blinker.obj
 0002:0000294c       ??_R2CTObjectBlinker@@8    791f194c     citk_Blinker.obj
 0002:00002964       ??_R2CD_CTObjectBlinker@@8 791f1964     citk_Blinker.obj
 0002:00002970       ??_R2CTWireFrameProperty@citk@@8 791f1970     citk_Blinker.obj
 0002:00002988       ??_R1A@?0A@EA@CTObjectBlinkerED@@8 791f1988     citk_Blinker.obj
 0002:000029a4       ??_R1A@?0A@EA@CD_CTObjectBlinkerED@@8 791f19a4     citk_Blinker.obj
 0002:000029c0       ??_R1A@?0A@EA@CTObjectBlinker@@8 791f19c0     citk_Blinker.obj
 0002:000029dc       ??_R1A@?0A@EA@CD_CTObjectBlinker@@8 791f19dc     citk_Blinker.obj
 0002:000029f8       ??_R1A@?0A@EA@CTWireFrameProperty@citk@@8 791f19f8     citk_Blinker.obj
 0002:00002a14       ??_R3CTObjectBlinkerED@@8  791f1a14     citk_Blinker.obj
 0002:00002a24       ??_R3CD_CTObjectBlinkerED@@8 791f1a24     citk_Blinker.obj
 0002:00002a34       ??_R3CTObjectBlinker@@8    791f1a34     citk_Blinker.obj
 0002:00002a44       ??_R3CD_CTObjectBlinker@@8 791f1a44     citk_Blinker.obj
 0002:00002a54       ??_R3CTWireFrameProperty@citk@@8 791f1a54     citk_Blinker.obj
 0002:00002a64       ??_R4CTObjectBlinkerED@@6B@ 791f1a64     citk_Blinker.obj
 0002:00002a78       ??_R4CD_CTObjectBlinkerED@@6B@ 791f1a78     citk_Blinker.obj
 0002:00002a8c       ??_R4CTObjectBlinker@@6B@  791f1a8c     citk_Blinker.obj
 0002:00002aa0       ??_R4CD_CTObjectBlinker@@6B@ 791f1aa0     citk_Blinker.obj
 0002:00002ab4       ??_R4CTWireFrameProperty@citk@@6B@ 791f1ab4     citk_Blinker.obj
 0002:00002ac8       ??_R4CTGeometry@citk@@6B@  791f1ac8     citk_Blinker.obj
 0002:00002adc       ??_R2CTMessageHud@@8       791f1adc     citk_MessageHud.obj
 0002:00002b00       ??_R2CD_CTMessageHud@@8    791f1b00     citk_MessageHud.obj
 0002:00002b0c       ??_R2CT3DText@citk@@8      791f1b0c     citk_MessageHud.obj
 0002:00002b3c       ??_R2CTMultiMtlGeometry@citk@@8 791f1b3c     citk_MessageHud.obj
 0002:00002b68       ??_R1A@?0A@EA@CTMessageHud@@8 791f1b68     citk_MessageHud.obj
 0002:00002b84       ??_R1A@?0A@EA@CD_CTMessageHud@@8 791f1b84     citk_MessageHud.obj
 0002:00002ba0       ??_R1A@?0A@EA@CT3DText@citk@@8 791f1ba0     citk_MessageHud.obj
 0002:00002bbc       ??_R1A@?0A@EA@CTMultiMtlGeometry@citk@@8 791f1bbc     citk_MessageHud.obj
 0002:00002bd8       ??_R3CTMessageHud@@8       791f1bd8     citk_MessageHud.obj
 0002:00002be8       ??_R3CD_CTMessageHud@@8    791f1be8     citk_MessageHud.obj
 0002:00002bf8       ??_R3CTMultiMtlGeometry@citk@@8 791f1bf8     citk_MessageHud.obj
 0002:00002c08       ??_R3CT3DText@citk@@8      791f1c08     citk_MessageHud.obj
 0002:00002c18       ??_R4CTMessageHud@@6B@     791f1c18     citk_MessageHud.obj
 0002:00002c2c       ??_R4CD_CTMessageHud@@6B@  791f1c2c     citk_MessageHud.obj
 0002:00002c40       ??_R4CT3DText@citk@@6B@    791f1c40     citk_MessageHud.obj
 0002:00002c54       ??_R2CTSoloViewer@@8       791f1c54     citk_SoloViewer.obj
 0002:00002c64       ??_R2CD_CTSoloViewer@@8    791f1c64     citk_SoloViewer.obj
 0002:00002c70       ??_R2CTMotionController@citk@@8 791f1c70     citk_SoloViewer.obj
 0002:00002c98       ??_R2CTEntityController@citk@@8 791f1c98     citk_SoloViewer.obj
 0002:00002cbc       ??_R2CTCamera@citk@@8      791f1cbc     citk_SoloViewer.obj
 0002:00002ce4       ??_R2CTLight@citk@@8       791f1ce4     citk_SoloViewer.obj
 0002:00002d0c       ??_R2CTGroup@citk@@8       791f1d0c     citk_SoloViewer.obj
 0002:00002d34       ??_R1A@?0A@EA@CTSoloViewer@@8 791f1d34     citk_SoloViewer.obj
 0002:00002d50       ??_R1A@?0A@EA@CD_CTSoloViewer@@8 791f1d50     citk_SoloViewer.obj
 0002:00002d6c       ??_R1A@?0A@EA@CTMotionController@citk@@8 791f1d6c     citk_SoloViewer.obj
 0002:00002d88       ??_R1A@?0A@EA@CTEntityController@citk@@8 791f1d88     citk_SoloViewer.obj
 0002:00002da4       ??_R1A@?0A@EA@CTCamera@citk@@8 791f1da4     citk_SoloViewer.obj
 0002:00002dc0       ??_R1A@?0A@EA@CTLight@citk@@8 791f1dc0     citk_SoloViewer.obj
 0002:00002ddc       ??_R1A@?0A@EA@CTGroup@citk@@8 791f1ddc     citk_SoloViewer.obj
 0002:00002df8       ??_R3CTSoloViewer@@8       791f1df8     citk_SoloViewer.obj
 0002:00002e08       ??_R3CD_CTSoloViewer@@8    791f1e08     citk_SoloViewer.obj
 0002:00002e18       ??_R3CTEntityController@citk@@8 791f1e18     citk_SoloViewer.obj
 0002:00002e28       ??_R3CTMotionController@citk@@8 791f1e28     citk_SoloViewer.obj
 0002:00002e38       ??_R3CTCamera@citk@@8      791f1e38     citk_SoloViewer.obj
 0002:00002e48       ??_R3CTLight@citk@@8       791f1e48     citk_SoloViewer.obj
 0002:00002e58       ??_R3CTGroup@citk@@8       791f1e58     citk_SoloViewer.obj
 0002:00002e68       ??_R4CTSoloViewer@@6B@     791f1e68     citk_SoloViewer.obj
 0002:00002e7c       ??_R4CD_CTSoloViewer@@6B@  791f1e7c     citk_SoloViewer.obj
 0002:00002e90       ??_R4CTMotionController@citk@@6B@ 791f1e90     citk_SoloViewer.obj
 0002:00002ea4       ??_R4CTCamera@citk@@6B@    791f1ea4     citk_SoloViewer.obj
 0002:00002eb8       ??_R4CTLight@citk@@6B@     791f1eb8     citk_SoloViewer.obj
 0002:00002ecc       ??_R4CTGroup@citk@@6B@     791f1ecc     citk_SoloViewer.obj
 0002:00002ee0       ??_R2CTToolTip@@8          791f1ee0     citk_ToolTip.obj
 0002:00002f10       ??_R2CD_CTToolTip@@8       791f1f10     citk_ToolTip.obj
 0002:00002f1c       ??_R2CTTextureProperty@citk@@8 791f1f1c     citk_ToolTip.obj
 0002:00002f34       ??_R1A@?0A@EA@CTToolTip@@8 791f1f34     citk_ToolTip.obj
 0002:00002f50       ??_R1A@?0A@EA@CD_CTToolTip@@8 791f1f50     citk_ToolTip.obj
 0002:00002f6c       ??_R1A@?0A@EA@CTTextureProperty@citk@@8 791f1f6c     citk_ToolTip.obj
 0002:00002f88       ??_R3CTToolTip@@8          791f1f88     citk_ToolTip.obj
 0002:00002f98       ??_R3CD_CTToolTip@@8       791f1f98     citk_ToolTip.obj
 0002:00002fa8       ??_R3CTTextureProperty@citk@@8 791f1fa8     citk_ToolTip.obj
 0002:00002fb8       ??_R4CTToolTip@@6B@        791f1fb8     citk_ToolTip.obj
 0002:00002fcc       ??_R4CD_CTToolTip@@6B@     791f1fcc     citk_ToolTip.obj
 0002:00002fe0       ??_R4CTTextureProperty@citk@@6B@ 791f1fe0     citk_ToolTip.obj
 0002:00002ff4       ??_R2?$SafeArray@VCTGroup@citk@@@citk@@8 791f1ff4     citk_Volumes.obj
 0002:00003008       ??_R2?$ArrayPtr@VCTGroup@citk@@@citkTypes@@8 791f2008     citk_Volumes.obj
 0002:00003014       ??_R2?$Array@PAVCTGroup@citk@@$00@citkTypes@@8 791f2014     citk_Volumes.obj
 0002:0000301c       ??_R2IVTreeProcessor@@8    791f201c     citk_Volumes.obj
 0002:00003044       ??_R2CTTreeProcessor@citk@@8 791f2044     citk_Volumes.obj
 0002:00003068       ??_R2CD_IVTreeProcessor@@8 791f2068     citk_Volumes.obj
 0002:00003074       ??_R2IVPleh@@8             791f2074     citk_Volumes.obj
 0002:0000309c       ??_R2CD_IVPleh@@8          791f209c     citk_Volumes.obj
 0002:000030a8       ??_R13?0A@EA@?$Array@PAVCTGroup@citk@@$00@citkTypes@@8 791f20a8     citk_Volumes.obj
 0002:000030c4       ??_R13?0A@EA@?$ArrayPtr@VCTGroup@citk@@@citkTypes@@8 791f20c4     citk_Volumes.obj
 0002:000030e0       ??_R1A@?0A@EA@?$SafeArray@VCTGroup@citk@@@citk@@8 791f20e0     citk_Volumes.obj
 0002:000030fc       ??_R1A@?0A@EA@?$ArrayPtr@VCTGroup@citk@@@citkTypes@@8 791f20fc     citk_Volumes.obj
 0002:00003118       ??_R1A@?0A@EA@?$Array@PAVCTGroup@citk@@$00@citkTypes@@8 791f2118     citk_Volumes.obj
 0002:00003134       ??_R1A@?0A@EA@IVTreeProcessor@@8 791f2134     citk_Volumes.obj
 0002:00003150       ??_R1A@?0A@EA@CTTreeProcessor@citk@@8 791f2150     citk_Volumes.obj
 0002:0000316c       ??_R1A@?0A@EA@CD_IVTreeProcessor@@8 791f216c     citk_Volumes.obj
 0002:00003188       ??_R1A@?0A@EA@IVPleh@@8    791f2188     citk_Volumes.obj
 0002:000031a4       ??_R1A@?0A@EA@CD_IVPleh@@8 791f21a4     citk_Volumes.obj
 0002:000031c0       ??_R3?$Array@PAVCTGroup@citk@@$00@citkTypes@@8 791f21c0     citk_Volumes.obj
 0002:000031d0       ??_R3?$ArrayPtr@VCTGroup@citk@@@citkTypes@@8 791f21d0     citk_Volumes.obj
 0002:000031e0       ??_R3?$SafeArray@VCTGroup@citk@@@citk@@8 791f21e0     citk_Volumes.obj
 0002:000031f0       ??_R3CTTreeProcessor@citk@@8 791f21f0     citk_Volumes.obj
 0002:00003200       ??_R3IVTreeProcessor@@8    791f2200     citk_Volumes.obj
 0002:00003210       ??_R3CD_IVTreeProcessor@@8 791f2210     citk_Volumes.obj
 0002:00003220       ??_R3IVPleh@@8             791f2220     citk_Volumes.obj
 0002:00003230       ??_R3CD_IVPleh@@8          791f2230     citk_Volumes.obj
 0002:00003240       ??_R4?$SafeArray@VCTGroup@citk@@@citk@@6B@ 791f2240     citk_Volumes.obj
 0002:00003254       ??_R4IVTreeProcessor@@6B@  791f2254     citk_Volumes.obj
 0002:00003268       ??_R4CD_IVTreeProcessor@@6B@ 791f2268     citk_Volumes.obj
 0002:0000327c       ??_R4IVPleh@@6B@           791f227c     citk_Volumes.obj
 0002:00003290       ??_R4CD_IVPleh@@6B@        791f2290     citk_Volumes.obj
 0002:000032a4       ??_R1A@?0A@EA@?$SafeArray@VCTEntity@citk@@@citk@@8 791f22a4     citk_Volumes.obj
 0002:000032c0       ??_R1A@?0A@EA@?$ArrayPtr@VCTEntity@citk@@@citkTypes@@8 791f22c0     citk_Volumes.obj
 0002:000032dc       ??_R2?$ArrayPtr@VCTEntity@citk@@@citkTypes@@8 791f22dc     citk_Volumes.obj
 0002:000032e8       ??_R3?$ArrayPtr@VCTEntity@citk@@@citkTypes@@8 791f22e8     citk_Volumes.obj
 0002:000032f8       ??_R13?0A@EA@?$ArrayPtr@VCTEntity@citk@@@citkTypes@@8 791f22f8     citk_Volumes.obj
 0002:00003314       ??_R1A@?0A@EA@?$Array@PAVCTEntity@citk@@$00@citkTypes@@8 791f2314     citk_Volumes.obj
 0002:00003330       ??_R2?$Array@PAVCTEntity@citk@@$00@citkTypes@@8 791f2330     citk_Volumes.obj
 0002:00003338       ??_R3?$Array@PAVCTEntity@citk@@$00@citkTypes@@8 791f2338     citk_Volumes.obj
 0002:00003348       ??_R13?0A@EA@?$Array@PAVCTEntity@citk@@$00@citkTypes@@8 791f2348     citk_Volumes.obj
 0002:00003364       ??_R2?$SafeArray@VCTEntity@citk@@@citk@@8 791f2364     citk_Volumes.obj
 0002:00003378       ??_R3?$SafeArray@VCTEntity@citk@@@citk@@8 791f2378     citk_Volumes.obj
 0002:00003388       ??_R4?$SafeArray@VCTEntity@citk@@@citk@@6B@ 791f2388     citk_Volumes.obj
 0002:0000339c       ??_R4DThread@citkTypes@@6B@ 791f239c     citkTypes:citkt_Thread_Win32.obj
 0002:000033b0       ___safe_se_handler_table   791f23b0     <linker-defined>
 0002:0000382c       ___rtc_iaa                 791f282c     MSVCRT:_initsect_.obj
 0002:00003830       ___rtc_izz                 791f2830     MSVCRT:_initsect_.obj
 0002:00003834       ___rtc_taa                 791f2834     MSVCRT:_initsect_.obj
 0002:00003838       ___rtc_tzz                 791f2838     MSVCRT:_initsect_.obj
 0002:0000383c       __tls_start                791f283c     MSVCRT:tlssup.obj
 0002:00003840       __Init_thread_epoch        791f2840     MSVCRT:thread_safe_statics.obj
 0002:00003844       __tls_end                  791f2844     MSVCRT:tlssup.obj
 0002:00004614       __TI2?AVbad_alloc@std@@    791f3614     MSVCRT:throw_bad_alloc.obj
 0002:00004624       __CTA2?AVbad_alloc@std@@   791f3624     MSVCRT:throw_bad_alloc.obj
 0002:00004630       __CT??_R0?AVbad_alloc@std@@@8??0bad_alloc@std@@QAE@ABV01@@Z12 791f3630     MSVCRT:throw_bad_alloc.obj
 0002:0000464c       __CT??_R0?AVexception@std@@@8??0exception@std@@QAE@ABV01@@Z12 791f364c     MSVCRT:throw_bad_alloc.obj
 0002:00004668       __TI3?AVbad_array_new_length@std@@ 791f3668     MSVCRT:throw_bad_alloc.obj
 0002:00004678       __CTA3?AVbad_array_new_length@std@@ 791f3678     MSVCRT:throw_bad_alloc.obj
 0002:00004688       __CT??_R0?AVbad_array_new_length@std@@@8??0bad_array_new_length@std@@QAE@ABV01@@Z12 791f3688     MSVCRT:throw_bad_alloc.obj
 0002:00006710       __IMPORT_DESCRIPTOR_KERNEL32 791f5710     kernel32:KERNEL32.dll
 0002:00006724       __IMPORT_DESCRIPTOR_USER32 791f5724     user32:USER32.dll
 0002:00006738       __IMPORT_DESCRIPTOR_citkCore 791f5738     citkcore:citkCore.dll
 0002:0000674c       __IMPORT_DESCRIPTOR_VCRUNTIME140 791f574c     vcruntime:VCRUNTIME140.dll
 0002:00006760       __IMPORT_DESCRIPTOR_api-ms-win-crt-heap-l1-1-0 791f5760     ucrt:api-ms-win-crt-heap-l1-1-0.dll
 0002:00006774       __IMPORT_DESCRIPTOR_api-ms-win-crt-multibyte-l1-1-0 791f5774     ucrt:api-ms-win-crt-multibyte-l1-1-0.dll
 0002:00006788       __IMPORT_DESCRIPTOR_api-ms-win-crt-convert-l1-1-0 791f5788     ucrt:api-ms-win-crt-convert-l1-1-0.dll
 0002:0000679c       __IMPORT_DESCRIPTOR_api-ms-win-crt-stdio-l1-1-0 791f579c     ucrt:api-ms-win-crt-stdio-l1-1-0.dll
 0002:000067b0       __IMPORT_DESCRIPTOR_api-ms-win-crt-utility-l1-1-0 791f57b0     ucrt:api-ms-win-crt-utility-l1-1-0.dll
 0002:000067c4       __IMPORT_DESCRIPTOR_api-ms-win-crt-string-l1-1-0 791f57c4     ucrt:api-ms-win-crt-string-l1-1-0.dll
 0002:000067d8       __IMPORT_DESCRIPTOR_api-ms-win-crt-runtime-l1-1-0 791f57d8     ucrt:api-ms-win-crt-runtime-l1-1-0.dll
 0002:000067ec       __NULL_IMPORT_DESCRIPTOR   791f57ec     kernel32:KERNEL32.dll
 0003:00000000       ___scrt_native_dllmain_reason 791fb000     MSVCRT:utility.obj
 0003:00000004       __Init_global_epoch        791fb004     MSVCRT:thread_safe_statics.obj
 0003:00000008       ___isa_enabled             791fb008     MSVCRT:_cpu_disp_.obj
 0003:00000010       ___security_cookie         791fb010     MSVCRT:gs_cookie.obj
 0003:00000014       ___security_cookie_complement 791fb014     MSVCRT:gs_cookie.obj
 0003:00000018       ___scrt_ucrt_dll_is_in_use 791fb018     MSVCRT:ucrt_stubs.obj
 0003:00000020       ?_CR_HBdB@@3VCR_HBdB@@A    791fb020     Copyright.obj
 0003:00000028       ?MeasPool@DAxisTracker@@0V?$DMemoryPool@Umeas_t@DAxisTracker@@@citkTypes@@A 791fb028     citk_AxisTracker.obj
 0003:00000040       ?msgs@DProfiler@citk@@0V?$ArrayVal@VString@citkTypes@@$0A@@citkTypes@@A 791fb040     citk_Profiler.obj
 0003:00000050       ?All@CTAbstractMaterial@@0V?$ArrayPtr@VCTAbstractMaterial@@@citkTypes@@A 791fb050     citk_AbstractMaterials.obj
 0003:00000070       __fltused                  791fb070     MSVCRT:fltused.obj
 0003:00000080       ??_R0?AVtype_info@@@8      791fb080     MSVCRT:std_type_info_static.obj
 0003:00000098       ??_R0?AVbad_alloc@std@@@8  791fb098     MSVCRT:throw_bad_alloc.obj
 0003:000000b4       ??_R0?AVexception@std@@@8  791fb0b4     MSVCRT:throw_bad_alloc.obj
 0003:000000d0       ??_R0?AVbad_array_new_length@std@@@8 791fb0d0     MSVCRT:throw_bad_alloc.obj
 0003:000000f8       ??_R0?AVCTBasic@citk@@@8   791fb0f8     citkUtils.obj
 0003:00000114       ??_R0?AVDThread@citkTypes@@@8 791fb114     citkUtils.obj
 0003:00000134       ??_R0?AVDMessageBox@citkTypes@@@8 791fb134     citkUtils.obj
 0003:00000158       ??_R0?AVCTPlugInLib@citk@@@8 791fb158     citkUtils.obj
 0003:00000178       ??_R0?AVcitkUtils@@@8      791fb178     citkUtils.obj
 0003:00000190       ??_R0?AVClassDesc@citk@@@8 791fb190     citkUtils.obj
 0003:000001b0       ??_R0?AVCD_citkUtils@@@8   791fb1b0     citkUtils.obj
 0003:000001cc       ??_R0?AVCR_HBdB@@@8        791fb1cc     Copyright.obj
 0003:000001e4       ??_R0?AVCopyright@citk@@@8 791fb1e4     Copyright.obj
 0003:00000204       ??_R0?AVCTAggregated@citk@@@8 791fb204     citk_NoiseTexture.obj
 0003:00000224       ??_R0?AVCTStreamed@citk@@@8 791fb224     citk_NoiseTexture.obj
 0003:00000244       ??_R0?AVCTReferenced@citk@@@8 791fb244     citk_NoiseTexture.obj
 0003:00000264       ??_R0?AVCTBitmapImport@citk@@@8 791fb264     citk_NoiseTexture.obj
 0003:00000288       ??_R0?AVCTImport@citk@@@8  791fb288     citk_NoiseTexture.obj
 0003:000002a4       ??_R0?AVCTImportExport@citk@@@8 791fb2a4     citk_NoiseTexture.obj
 0003:000002c8       ??_R0?AVCTLogged@citk@@@8  791fb2c8     citk_NoiseTexture.obj
 0003:000002e4       ??_R0?AVCTNamed@citk@@@8   791fb2e4     citk_NoiseTexture.obj
 0003:00000300       ??_R0?AVCTInterface@citk@@@8 791fb300     citk_NoiseTexture.obj
 0003:00000320       ??_R0?AVCTNoiseTexture@@@8 791fb320     citk_NoiseTexture.obj
 0003:00000340       ??_R0?AVCD_CTNoiseTexture@@@8 791fb340     citk_NoiseTexture.obj
 0003:00000360       ??_R0?AVCTController@citk@@@8 791fb360     citk_PIDController.obj
 0003:00000380       ??_R0?AVCTPIDController@citk@@@8 791fb380     citk_PIDController.obj
 0003:000003a4       ??_R0?AVCD_CTPIDController@@@8 791fb3a4     citk_PIDController.obj
 0003:000003c8       ??_R0?AVCTBasicPtr@citk@@@8 791fb3c8     citk_Profiler.obj
 0003:000003e8       ??_R0?AV?$SafePtr@VCTTimer@citk@@@citk@@@8 791fb3e8     citk_Profiler.obj
 0003:00000418       ??_R0?AV?$SafePtr@VCTRenderTarget@citk@@@citk@@@8 791fb418     citk_Snapper.obj
 0003:0000044c       ??_R0?AVCTCached@citk@@@8  791fb44c     citk_Snapper.obj
 0003:00000468       ??_R0?AVCTTexture@citk@@@8 791fb468     citk_Snapper.obj
 0003:00000488       ??_R0?AVCTGeometry@citk@@@8 791fb488     citk_2DFace.obj
 0003:000004a8       ??_R0?AVCTEntity@citk@@@8  791fb4a8     citk_2DFace.obj
 0003:000004c4       ??_R0?AVCTProcess@citk@@@8 791fb4c4     citk_2DFace.obj
 0003:000004e4       ??_R0?AVCT2DFace@@@8       791fb4e4     citk_2DFace.obj
 0003:000004fc       ??_R0?AVCD_CT2DFace@@@8    791fb4fc     citk_2DFace.obj
 0003:00000518       ??_R0?AVCTAlphaProperty@citk@@@8 791fb518     citk_2DFace.obj
 0003:0000053c       ??_R0?AVCTRenderProperty@citk@@@8 791fb53c     citk_2DFace.obj
 0003:00000560       ??_R0?AVCTRenderFlagsProperty@citk@@@8 791fb560     citk_2DFace.obj
 0003:0000058c       ??_R0?AVCTRenderState@citk@@@8 791fb58c     citk_2DFace.obj
 0003:000005b0       ??_R0?AVCTVertexData@citk@@@8 791fb5b0     citk_2DFace.obj
 0003:000005d0       ??_R0?AV?$SafePtr@VCTEntity@citk@@@citk@@@8 791fb5d0     citk_2DFace.obj
 0003:00000600       ??_R0?AVCTExtraData@citk@@@8 791fb600     citk_AbstractMaterials.obj
 0003:00000620       ??_R0?AVCTAbstractMaterial@@@8 791fb620     citk_AbstractMaterials.obj
 0003:00000644       ??_R0?AVCD_CTAbstractMaterial@@@8 791fb644     citk_AbstractMaterials.obj
 0003:00000668       ??_R0?AVCTMaterialProperty@citk@@@8 791fb668     citk_AbstractMaterials.obj
 0003:00000690       ??_R0?AVCTObjectBlinkerED@@@8 791fb690     citk_Blinker.obj
 0003:000006b0       ??_R0?AVCD_CTObjectBlinkerED@@@8 791fb6b0     citk_Blinker.obj
 0003:000006d4       ??_R0?AVCTObjectBlinker@@@8 791fb6d4     citk_Blinker.obj
 0003:000006f4       ??_R0?AVCD_CTObjectBlinker@@@8 791fb6f4     citk_Blinker.obj
 0003:00000718       ??_R0?AVCTWireFrameProperty@citk@@@8 791fb718     citk_Blinker.obj
 0003:00000740       ??_R0?AVCTMessageHud@@@8   791fb740     citk_MessageHud.obj
 0003:0000075c       ??_R0?AVCD_CTMessageHud@@@8 791fb75c     citk_MessageHud.obj
 0003:0000077c       ??_R0?AVCTMultiMtlGeometry@citk@@@8 791fb77c     citk_MessageHud.obj
 0003:000007a4       ??_R0?AVCT3DText@citk@@@8  791fb7a4     citk_MessageHud.obj
 0003:000007c0       ??_R0?AVCTSoloViewer@@@8   791fb7c0     citk_SoloViewer.obj
 0003:000007dc       ??_R0?AVCD_CTSoloViewer@@@8 791fb7dc     citk_SoloViewer.obj
 0003:000007fc       ??_R0?AVCTEntityController@citk@@@8 791fb7fc     citk_SoloViewer.obj
 0003:00000824       ??_R0?AVCTMotionController@citk@@@8 791fb824     citk_SoloViewer.obj
 0003:0000084c       ??_R0?AVCTCamera@citk@@@8  791fb84c     citk_SoloViewer.obj
 0003:00000868       ??_R0?AVCTLight@citk@@@8   791fb868     citk_SoloViewer.obj
 0003:00000884       ??_R0?AVCTGroup@citk@@@8   791fb884     citk_SoloViewer.obj
 0003:000008a0       ??_R0?AVCTToolTip@@@8      791fb8a0     citk_ToolTip.obj
 0003:000008b8       ??_R0?AVCD_CTToolTip@@@8   791fb8b8     citk_ToolTip.obj
 0003:000008d4       ??_R0?AVCTTextureProperty@citk@@@8 791fb8d4     citk_ToolTip.obj
 0003:000008fc       ??_R0?AV?$Array@PAVCTGroup@citk@@$00@citkTypes@@@8 791fb8fc     citk_Volumes.obj
 0003:00000934       ??_R0?AV?$ArrayPtr@VCTGroup@citk@@@citkTypes@@@8 791fb934     citk_Volumes.obj
 0003:00000968       ??_R0?AV?$SafeArray@VCTGroup@citk@@@citk@@@8 791fb968     citk_Volumes.obj
 0003:00000998       ??_R0?AVCTTreeProcessor@citk@@@8 791fb998     citk_Volumes.obj
 0003:000009bc       ??_R0?AVIVTreeProcessor@@@8 791fb9bc     citk_Volumes.obj
 0003:000009dc       ??_R0?AVCD_IVTreeProcessor@@@8 791fb9dc     citk_Volumes.obj
 0003:00000a00       ??_R0?AVIVPleh@@@8         791fba00     citk_Volumes.obj
 0003:00000a18       ??_R0?AVCD_IVPleh@@@8      791fba18     citk_Volumes.obj
 0003:00000a30       ??_R0?AV?$SafeArray@VCTEntity@citk@@@citk@@@8 791fba30     citk_Volumes.obj
 0003:00000a60       ??_R0?AV?$ArrayPtr@VCTEntity@citk@@@citkTypes@@@8 791fba60     citk_Volumes.obj
 0003:00000a94       ??_R0?AV?$Array@PAVCTEntity@citk@@$00@citkTypes@@@8 791fba94     citk_Volumes.obj
 0003:00000ad0       ___scrt_current_native_startup_state 791fbad0     MSVCRT:utility.obj
 0003:00000ad4       ___scrt_native_startup_lock 791fbad4     MSVCRT:utility.obj
 0003:00000b20       ___isa_available           791fbb20     MSVCRT:_cpu_disp_.obj
 0003:00000b24       ___favor                   791fbb24     MSVCRT:_cpu_disp_.obj
 0003:00000b28       ___scrt_debugger_hook_flag 791fbb28     MSVCRT:utility_desktop.obj
 0003:00000b2c       __tls_index                791fbb2c     MSVCRT:tlssup.obj
 0003:00000b30       ?__type_info_root_node@@3U__type_info_node@@A 791fbb30     MSVCRT:tncleanup.obj
 0003:00000e58       ?_OptionsStorage@?1??__local_stdio_scanf_options@@9@4_KA 791fbe58     citk_NoiseTexture.obj
 0003:00000e60       ?ProfCount@DProfiler@citk@@0HA 791fbe60     citk_Profiler.obj
 0003:00000e64       ?DefaultIsAbstract@CTAbstractMaterial@@0_NA 791fbe64     citk_AbstractMaterials.obj
 0003:00000e68       ?PivotViewport@CTObjectBlinker@@2PAVDViewport@citk@@A 791fbe68     citk_Blinker.obj
 0003:00000e90       ?_CD_citkUtils@@3VCD_citkUtils@@A 791fbe90     citkUtils.obj
 0003:00000ec8       ?_CD_CTNoiseTexture@@3VCD_CTNoiseTexture@@A 791fbec8     citk_NoiseTexture.obj
 0003:00000f00       ?_CD_CTPIDController@@3VCD_CTPIDController@@A 791fbf00     citk_PIDController.obj
 0003:00000f38       ?SharedTimer@DProfiler@citk@@0V?$SafePtr@VCTTimer@citk@@@2@A 791fbf38     citk_Profiler.obj
 0003:00000f40       ?_CD_CT2DFace@@3VCD_CT2DFace@@A 791fbf40     citk_2DFace.obj
 0003:00000f78       ?_CD_CTAbstractMaterial@@3VCD_CTAbstractMaterial@@A 791fbf78     citk_AbstractMaterials.obj
 0003:00000fb0       ?_CD_CTObjectBlinker@@3VCD_CTObjectBlinker@@A 791fbfb0     citk_Blinker.obj
 0003:00000fe8       ?_CD_CTObjectBlinkerED@@3VCD_CTObjectBlinkerED@@A 791fbfe8     citk_Blinker.obj
 0003:00001020       ?WorldPivotRS@CTObjectBlinker@@0V?$StrongPtr@VCTRenderState@citk@@@citk@@A 791fc020     citk_Blinker.obj
 0003:00001024       ?TransPivotRS@CTObjectBlinker@@0V?$StrongPtr@VCTRenderState@citk@@@citk@@A 791fc024     citk_Blinker.obj
 0003:00001028       ?WorldPivotVD@CTObjectBlinker@@0V?$StrongPtr@VCTVertexData@citk@@@citk@@A 791fc028     citk_Blinker.obj
 0003:0000102c       ?TransPivotVD@CTObjectBlinker@@0V?$StrongPtr@VCTVertexData@citk@@@citk@@A 791fc02c     citk_Blinker.obj
 0003:00001030       ?_CD_CTMessageHud@@3VCD_CTMessageHud@@A 791fc030     citk_MessageHud.obj
 0003:00001068       ?_CD_CTSoloViewer@@3VCD_CTSoloViewer@@A 791fc068     citk_SoloViewer.obj
 0003:000010a0       ?_CD_CTToolTip@@3VCD_CTToolTip@@A 791fc0a0     citk_ToolTip.obj
 0003:000010d8       ?_CD_IVPleh@@3VCD_IVPleh@@A 791fc0d8     citk_Volumes.obj
 0003:00001110       ?_CD_IVTreeProcessor@@3VCD_IVTreeProcessor@@A 791fc110     citk_Volumes.obj
 0003:00001148       ___@@_PchSym_@00@UfhvihUyzigwUhzmwylcUnlmwlyraaziilUxrgpUyizmxsvhUreCFABUOyfrowUlyqUivovzhvUxrgpfgrohUhszivwOlyq@4B2008FD98C1DD4 791fc148     Shared.obj
 0003:00001150       ?_OptionsStorage@?1??__local_stdio_printf_options@@9@4_KA 791fc150     citkTypes:citkt_String.obj
 0003:0000115c       ___dyn_tls_init_callback   791fc15c     <common>

 entry point at        0001:0000bf16

 Static symbols

 0000:fffe0000       .debug$S                   791e0000     citkcore:citkCore.dll
 0000:fffe0000       .debug$S                   791e0000     citkcore:citkCore.dll
 0000:fffe0000       .debug$S                   791e0000     citkcore:citkCore.dll
 0000:fffe0000       .debug$S                   791e0000     citkcore:citkCore.dll
 0000:fffe0000       .debug$S                   791e0000     citkcore:citkCore.dll
 0000:fffe0000       .debug$S                   791e0000     citkcore:citkCore.dll
 0000:fffe0000       .debug$S                   791e0000     citkcore:citkCore.dll
 0000:fffe0000       .debug$S                   791e0000     citkcore:citkCore.dll
 0000:fffe0000       .debug$S                   791e0000     citkcore:citkCore.dll
 0000:fffe0000       .debug$S                   791e0000     citkcore:citkCore.dll
 0000:fffe0000       .debug$S                   791e0000     citkcore:citkCore.dll
 0000:fffe0000       .debug$S                   791e0000     citkcore:citkCore.dll
 0000:fffe0000       .debug$S                   791e0000     citkcore:citkCore.dll
 0000:fffe0000       .debug$S                   791e0000     citkcore:citkCore.dll
 0000:fffe0000       .debug$S                   791e0000     citkcore:citkCore.dll
 0000:fffe0000       .debug$S                   791e0000     citkcore:citkCore.dll
 0000:fffe0000       .debug$S                   791e0000     ucrt:api-ms-win-crt-convert-l1-1-0.dll
 0000:fffe0000       .debug$S                   791e0000     citkcore:citkCore.dll
 0000:fffe0000       .debug$S                   791e0000     citkcore:citkCore.dll
 0000:fffe0000       .debug$S                   791e0000     citkcore:citkCore.dll
 0000:fffe0000       .debug$S                   791e0000     citkcore:citkCore.dll
 0000:fffe0000       .debug$S                   791e0000     citkcore:citkCore.dll
 0000:fffe0000       .debug$S                   791e0000     citkcore:citkCore.dll
 0000:fffe0000       .debug$S                   791e0000     citkcore:citkCore.dll
 0000:fffe0000       .debug$S                   791e0000     citkcore:citkCore.dll
 0000:fffe0000       .debug$S                   791e0000     citkcore:citkCore.dll
 0000:fffe0000       .debug$S                   791e0000     citkcore:citkCore.dll
 0000:fffe0000       .debug$S                   791e0000     citkcore:citkCore.dll
 0000:fffe0000       .debug$S                   791e0000     citkcore:citkCore.dll
 0000:fffe0000       .debug$S                   791e0000     citkcore:citkCore.dll
 0000:fffe0000       .debug$S                   791e0000     citkcore:citkCore.dll
 0000:fffe0000       .debug$S                   791e0000     citkcore:citkCore.dll
 0000:fffe0000       .debug$S                   791e0000     citkcore:citkCore.dll
 0000:fffe0000       .debug$S                   791e0000     citkcore:citkCore.dll
 0000:fffe0000       .debug$S                   791e0000     citkcore:citkCore.dll
 0000:fffe0000       .debug$S                   791e0000     citkcore:citkCore.dll
 0000:fffe0000       .debug$S                   791e0000     citkcore:citkCore.dll
 0000:fffe0000       .debug$S                   791e0000     citkcore:citkCore.dll
 0000:fffe0000       .debug$S                   791e0000     citkcore:citkCore.dll
 0000:fffe0000       .debug$S                   791e0000     citkcore:citkCore.dll
 0000:fffe0000       .debug$S                   791e0000     citkcore:citkCore.dll
 0000:fffe0000       .debug$S                   791e0000     citkcore:citkCore.dll
 0000:fffe0000       .debug$S                   791e0000     citkcore:citkCore.dll
 0000:fffe0000       .debug$S                   791e0000     citkcore:citkCore.dll
 0000:fffe0000       .debug$S                   791e0000     citkcore:citkCore.dll
 0000:fffe0000       .debug$S                   791e0000     citkcore:citkCore.dll
 0000:fffe0000       .debug$S                   791e0000     citkcore:citkCore.dll
 0000:fffe0000       .debug$S                   791e0000     citkcore:citkCore.dll
 0000:fffe0000       .debug$S                   791e0000     citkcore:citkCore.dll
 0000:fffe0000       .debug$S                   791e0000     citkcore:citkCore.dll
 0000:fffe0000       .debug$S                   791e0000     citkcore:citkCore.dll
 0000:fffe0000       .debug$S                   791e0000     citkcore:citkCore.dll
 0000:fffe0000       .debug$S                   791e0000     citkcore:citkCore.dll
 0000:fffe0000       .debug$S                   791e0000     citkcore:citkCore.dll
 0000:fffe0000       .debug$S                   791e0000     citkcore:citkCore.dll
 0000:fffe0000       .debug$S                   791e0000     citkcore:citkCore.dll
 0000:fffe0000       .debug$S                   791e0000     citkcore:citkCore.dll
 0000:fffe0000       .debug$S                   791e0000     citkcore:citkCore.dll
 0000:fffe0000       .debug$S                   791e0000     citkcore:citkCore.dll
 0000:fffe0000       .debug$S                   791e0000     citkcore:citkCore.dll
 0000:fffe0000       .debug$S                   791e0000     citkcore:citkCore.dll
 0000:fffe0000       .debug$S                   791e0000     citkcore:citkCore.dll
 0000:fffe0000       .debug$S                   791e0000     citkcore:citkCore.dll
 0000:fffe0000       .debug$S                   791e0000     citkcore:citkCore.dll
 0000:fffe0000       .debug$S                   791e0000     citkcore:citkCore.dll
 0000:fffe0000       .debug$S                   791e0000     citkcore:citkCore.dll
 0000:fffe0000       .debug$S                   791e0000     citkcore:citkCore.dll
 0000:fffe0000       .debug$S                   791e0000     citkcore:citkCore.dll
 0000:fffe0000       .debug$S                   791e0000     citkcore:citkCore.dll
 0000:fffe0000       .debug$S                   791e0000     citkcore:citkCore.dll
 0000:fffe0000       .debug$S                   791e0000     citkcore:citkCore.dll
 0000:fffe0000       .debug$S                   791e0000     citkcore:citkCore.dll
 0000:fffe0000       .debug$S                   791e0000     citkcore:citkCore.dll
 0000:fffe0000       .debug$S                   791e0000     citkcore:citkCore.dll
 0000:fffe0000       .debug$S                   791e0000     citkcore:citkCore.dll
 0000:fffe0000       .debug$S                   791e0000     citkcore:citkCore.dll
 0000:fffe0000       .debug$S                   791e0000     citkcore:citkCore.dll
 0000:fffe0000       .debug$S                   791e0000     citkcore:citkCore.dll
 0000:fffe0000       .debug$S                   791e0000     citkcore:citkCore.dll
 0000:fffe0000       .debug$S                   791e0000     citkcore:citkCore.dll
 0000:fffe0000       .debug$S                   791e0000     citkcore:citkCore.dll
 0000:fffe0000       .debug$S                   791e0000     citkcore:citkCore.dll
 0000:fffe0000       .debug$S                   791e0000     citkcore:citkCore.dll
 0000:fffe0000       .debug$S                   791e0000     citkcore:citkCore.dll
 0000:fffe0000       .debug$S                   791e0000     citkcore:citkCore.dll
 0000:fffe0000       .debug$S                   791e0000     citkcore:citkCore.dll
 0000:fffe0000       .debug$S                   791e0000     citkcore:citkCore.dll
 0000:fffe0000       .debug$S                   791e0000     citkcore:citkCore.dll
 0000:fffe0000       .debug$S                   791e0000     citkcore:citkCore.dll
 0000:fffe0000       .debug$S                   791e0000     citkcore:citkCore.dll
 0000:fffe0000       .debug$S                   791e0000     citkcore:citkCore.dll
 0000:fffe0000       .debug$S                   791e0000     citkcore:citkCore.dll
 0000:fffe0000       .debug$S                   791e0000     citkcore:citkCore.dll
 0000:fffe0000       .debug$S                   791e0000     citkcore:citkCore.dll
 0000:fffe0000       .debug$S                   791e0000     citkcore:citkCore.dll
 0000:fffe0000       .debug$S                   791e0000     citkcore:citkCore.dll
 0000:fffe0000       .debug$S                   791e0000     citkcore:citkCore.dll
 0000:fffe0000       .debug$S                   791e0000     citkcore:citkCore.dll
 0000:fffe0000       .debug$S                   791e0000     citkcore:citkCore.dll
 0000:fffe0000       .debug$S                   791e0000     citkcore:citkCore.dll
 0000:fffe0000       .debug$S                   791e0000     citkcore:citkCore.dll
 0000:fffe0000       .debug$S                   791e0000     citkcore:citkCore.dll
 0000:fffe0000       .debug$S                   791e0000     citkcore:citkCore.dll
 0000:fffe0000       .debug$S                   791e0000     citkcore:citkCore.dll
 0000:fffe0000       .debug$S                   791e0000     citkcore:citkCore.dll
 0000:fffe0000       .debug$S                   791e0000     citkcore:citkCore.dll
 0000:fffe0000       .debug$S                   791e0000     citkcore:citkCore.dll
 0000:fffe0000       .debug$S                   791e0000     citkcore:citkCore.dll
 0000:fffe0000       .debug$S                   791e0000     citkcore:citkCore.dll
 0000:fffe0000       .debug$S                   791e0000     citkcore:citkCore.dll
 0000:fffe0000       .debug$S                   791e0000     citkcore:citkCore.dll
 0000:fffe0000       .debug$S                   791e0000     citkcore:citkCore.dll
 0000:fffe0000       .debug$S                   791e0000     citkcore:citkCore.dll
 0000:fffe0000       .debug$S                   791e0000     citkcore:citkCore.dll
 0000:fffe0000       .debug$S                   791e0000     citkcore:citkCore.dll
 0000:fffe0000       .debug$S                   791e0000     citkcore:citkCore.dll
 0000:fffe0000       .debug$S                   791e0000     citkcore:citkCore.dll
 0000:fffe0000       .debug$S                   791e0000     citkcore:citkCore.dll
 0000:fffe0000       .debug$S                   791e0000     citkcore:citkCore.dll
 0000:fffe0000       .debug$S                   791e0000     citkcore:citkCore.dll
 0000:fffe0000       .debug$S                   791e0000     citkcore:citkCore.dll
 0000:fffe0000       .debug$S                   791e0000     citkcore:citkCore.dll
 0000:fffe0000       .debug$S                   791e0000     citkcore:citkCore.dll
 0000:fffe0000       .debug$S                   791e0000     citkcore:citkCore.dll
 0000:fffe0000       .debug$S                   791e0000     citkcore:citkCore.dll
 0000:fffe0000       .debug$S                   791e0000     citkcore:citkCore.dll
 0000:fffe0000       .debug$S                   791e0000     citkcore:citkCore.dll
 0000:fffe0000       .debug$S                   791e0000     citkcore:citkCore.dll
 0000:fffe0000       .debug$S                   791e0000     citkcore:citkCore.dll
 0000:fffe0000       .debug$S                   791e0000     citkcore:citkCore.dll
 0000:fffe0000       .debug$S                   791e0000     citkcore:citkCore.dll
 0000:fffe0000       .debug$S                   791e0000     citkcore:citkCore.dll
 0000:fffe0000       .debug$S                   791e0000     citkcore:citkCore.dll
 0000:fffe0000       .debug$S                   791e0000     citkcore:citkCore.dll
 0000:fffe0000       .debug$S                   791e0000     citkcore:citkCore.dll
 0000:fffe0000       .debug$S                   791e0000     citkcore:citkCore.dll
 0000:fffe0000       .debug$S                   791e0000     citkcore:citkCore.dll
 0000:fffe0000       .debug$S                   791e0000     citkcore:citkCore.dll
 0000:fffe0000       .debug$S                   791e0000     citkcore:citkCore.dll
 0000:fffe0000       .debug$S                   791e0000     citkcore:citkCore.dll
 0000:fffe0000       .debug$S                   791e0000     citkcore:citkCore.dll
 0000:fffe0000       .debug$S                   791e0000     citkcore:citkCore.dll
 0000:fffe0000       .debug$S                   791e0000     citkcore:citkCore.dll
 0000:fffe0000       .debug$S                   791e0000     citkcore:citkCore.dll
 0000:fffe0000       .debug$S                   791e0000     citkcore:citkCore.dll
 0000:fffe0000       .debug$S                   791e0000     citkcore:citkCore.dll
 0000:fffe0000       .debug$S                   791e0000     citkcore:citkCore.dll
 0000:fffe0000       .debug$S                   791e0000     citkcore:citkCore.dll
 0000:fffe0000       .debug$S                   791e0000     citkcore:citkCore.dll
 0000:fffe0000       .debug$S                   791e0000     citkcore:citkCore.dll
 0000:fffe0000       .debug$S                   791e0000     citkcore:citkCore.dll
 0000:fffe0000       .debug$S                   791e0000     citkcore:citkCore.dll
 0000:fffe0000       .debug$S                   791e0000     citkcore:citkCore.dll
 0000:fffe0000       .debug$S                   791e0000     citkcore:citkCore.dll
 0000:fffe0000       .debug$S                   791e0000     citkcore:citkCore.dll
 0000:fffe0000       .debug$S                   791e0000     citkcore:citkCore.dll
 0000:fffe0000       .debug$S                   791e0000     user32:USER32.dll
 0000:fffe0000       .debug$S                   791e0000     user32:USER32.dll
 0000:fffe0000       .debug$S                   791e0000     citkcore:citkCore.dll
 0000:fffe0000       .debug$S                   791e0000     kernel32:KERNEL32.dll
 0000:fffe0000       .debug$S                   791e0000     kernel32:KERNEL32.dll
 0000:fffe0000       .debug$S                   791e0000     kernel32:KERNEL32.dll
 0000:fffe0000       .debug$S                   791e0000     kernel32:KERNEL32.dll
 0000:fffe0000       .debug$S                   791e0000     kernel32:KERNEL32.dll
 0000:fffe0000       .debug$S                   791e0000     kernel32:KERNEL32.dll
 0000:fffe0000       .debug$S                   791e0000     kernel32:KERNEL32.dll
 0000:fffe0000       .debug$S                   791e0000     kernel32:KERNEL32.dll
 0000:fffe0000       .debug$S                   791e0000     kernel32:KERNEL32.dll
 0000:fffe0000       .debug$S                   791e0000     kernel32:KERNEL32.dll
 0000:fffe0000       .debug$S                   791e0000     kernel32:KERNEL32.dll
 0000:fffe0000       .debug$S                   791e0000     kernel32:KERNEL32.dll
 0000:fffe0000       .debug$S                   791e0000     kernel32:KERNEL32.dll
 0000:fffe0000       .debug$S                   791e0000     citkcore:citkCore.dll
 0000:fffe0000       .debug$S                   791e0000     citkcore:citkCore.dll
 0000:fffe0000       .debug$S                   791e0000     citkcore:citkCore.dll
 0000:fffe0000       .debug$S                   791e0000     citkcore:citkCore.dll
 0000:fffe0000       .debug$S                   791e0000     citkcore:citkCore.dll
 0000:fffe0000       .debug$S                   791e0000     citkcore:citkCore.dll
 0000:fffe0000       .debug$S                   791e0000     citkcore:citkCore.dll
 0000:fffe0000       .debug$S                   791e0000     citkcore:citkCore.dll
 0000:fffe0000       .debug$S                   791e0000     citkcore:citkCore.dll
 0000:fffe0000       .debug$S                   791e0000     citkcore:citkCore.dll
 0000:fffe0000       .debug$S                   791e0000     citkcore:citkCore.dll
 0000:fffe0000       .debug$S                   791e0000     citkcore:citkCore.dll
 0000:fffe0000       .debug$S                   791e0000     citkcore:citkCore.dll
 0000:fffe0000       .debug$S                   791e0000     citkcore:citkCore.dll
 0000:fffe0000       .debug$S                   791e0000     citkcore:citkCore.dll
 0000:fffe0000       .debug$S                   791e0000     citkcore:citkCore.dll
 0000:fffe0000       .debug$S                   791e0000     citkcore:citkCore.dll
 0000:fffe0000       .debug$S                   791e0000     citkcore:citkCore.dll
 0000:fffe0000       .debug$S                   791e0000     kernel32:KERNEL32.dll
 0000:fffe0000       .debug$S                   791e0000     kernel32:KERNEL32.dll
 0000:fffe0000       .debug$S                   791e0000     kernel32:KERNEL32.dll
 0000:fffe0000       .debug$S                   791e0000     kernel32:KERNEL32.dll
 0000:fffe0000       .debug$S                   791e0000     kernel32:KERNEL32.dll
 0000:fffe0000       .debug$S                   791e0000     kernel32:KERNEL32.dll
 0000:fffe0000       .debug$S                   791e0000     kernel32:KERNEL32.dll
 0000:fffe0000       .debug$S                   791e0000     kernel32:KERNEL32.dll
 0000:fffe0000       .debug$S                   791e0000     kernel32:KERNEL32.dll
 0000:fffe0000       .debug$S                   791e0000     kernel32:KERNEL32.dll
 0000:fffe0000       .debug$S                   791e0000     kernel32:KERNEL32.dll
 0000:fffe0000       .debug$S                   791e0000     kernel32:KERNEL32.dll
 0000:fffe0000       .debug$S                   791e0000     kernel32:KERNEL32.dll
 0000:fffe0000       .debug$S                   791e0000     kernel32:KERNEL32.dll
 0000:fffe0000       .debug$S                   791e0000     kernel32:KERNEL32.dll
 0000:fffe0000       .debug$S                   791e0000     kernel32:KERNEL32.dll
 0000:fffe0000       .debug$S                   791e0000     citkcore:citkCore.dll
 0000:fffe0000       .debug$S                   791e0000     citkcore:citkCore.dll
 0000:fffe0000       .debug$S                   791e0000     citkcore:citkCore.dll
 0000:fffe0000       .debug$S                   791e0000     citkcore:citkCore.dll
 0000:fffe0000       .debug$S                   791e0000     citkcore:citkCore.dll
 0000:fffe0000       .debug$S                   791e0000     citkcore:citkCore.dll
 0000:fffe0000       .debug$S                   791e0000     citkcore:citkCore.dll
 0000:fffe0000       .debug$S                   791e0000     citkcore:citkCore.dll
 0000:fffe0000       .debug$S                   791e0000     citkcore:citkCore.dll
 0000:fffe0000       .debug$S                   791e0000     citkcore:citkCore.dll
 0000:fffe0000       .debug$S                   791e0000     citkcore:citkCore.dll
 0000:fffe0000       .debug$S                   791e0000     vcruntime:VCRUNTIME140.dll
 0000:fffe0000       .debug$S                   791e0000     vcruntime:VCRUNTIME140.dll
 0000:fffe0000       .debug$S                   791e0000     vcruntime:VCRUNTIME140.dll
 0000:fffe0000       .debug$S                   791e0000     vcruntime:VCRUNTIME140.dll
 0000:fffe0000       .debug$S                   791e0000     vcruntime:VCRUNTIME140.dll
 0000:fffe0000       .debug$S                   791e0000     vcruntime:VCRUNTIME140.dll
 0000:fffe0000       .debug$S                   791e0000     vcruntime:VCRUNTIME140.dll
 0000:fffe0000       .debug$S                   791e0000     vcruntime:VCRUNTIME140.dll
 0000:fffe0000       .debug$S                   791e0000     vcruntime:VCRUNTIME140.dll
 0000:fffe0000       .debug$S                   791e0000     vcruntime:VCRUNTIME140.dll
 0000:fffe0000       .debug$S                   791e0000     vcruntime:VCRUNTIME140.dll
 0000:fffe0000       .debug$S                   791e0000     vcruntime:VCRUNTIME140.dll
 0000:fffe0000       .debug$S                   791e0000     ucrt:api-ms-win-crt-utility-l1-1-0.dll
 0000:fffe0000       .debug$S                   791e0000     ucrt:api-ms-win-crt-string-l1-1-0.dll
 0000:fffe0000       .debug$S                   791e0000     ucrt:api-ms-win-crt-string-l1-1-0.dll
 0000:fffe0000       .debug$S                   791e0000     ucrt:api-ms-win-crt-stdio-l1-1-0.dll
 0000:fffe0000       .debug$S                   791e0000     ucrt:api-ms-win-crt-stdio-l1-1-0.dll
 0000:fffe0000       .debug$S                   791e0000     ucrt:api-ms-win-crt-runtime-l1-1-0.dll
 0000:fffe0000       .debug$S                   791e0000     ucrt:api-ms-win-crt-runtime-l1-1-0.dll
 0000:fffe0000       .debug$S                   791e0000     ucrt:api-ms-win-crt-runtime-l1-1-0.dll
 0000:fffe0000       .debug$S                   791e0000     ucrt:api-ms-win-crt-runtime-l1-1-0.dll
 0000:fffe0000       .debug$S                   791e0000     ucrt:api-ms-win-crt-runtime-l1-1-0.dll
 0000:fffe0000       .debug$S                   791e0000     ucrt:api-ms-win-crt-runtime-l1-1-0.dll
 0000:fffe0000       .debug$S                   791e0000     ucrt:api-ms-win-crt-runtime-l1-1-0.dll
 0000:fffe0000       .debug$S                   791e0000     ucrt:api-ms-win-crt-runtime-l1-1-0.dll
 0000:fffe0000       .debug$S                   791e0000     ucrt:api-ms-win-crt-runtime-l1-1-0.dll
 0000:fffe0000       .debug$S                   791e0000     ucrt:api-ms-win-crt-runtime-l1-1-0.dll
 0000:fffe0000       .debug$S                   791e0000     ucrt:api-ms-win-crt-runtime-l1-1-0.dll
 0000:fffe0000       .debug$S                   791e0000     ucrt:api-ms-win-crt-runtime-l1-1-0.dll
 0000:fffe0000       .debug$S                   791e0000     ucrt:api-ms-win-crt-runtime-l1-1-0.dll
 0000:fffe0000       .debug$S                   791e0000     ucrt:api-ms-win-crt-multibyte-l1-1-0.dll
 0000:fffe0000       .debug$S                   791e0000     ucrt:api-ms-win-crt-multibyte-l1-1-0.dll
 0000:fffe0000       .debug$S                   791e0000     ucrt:api-ms-win-crt-multibyte-l1-1-0.dll
 0000:fffe0000       .debug$S                   791e0000     ucrt:api-ms-win-crt-multibyte-l1-1-0.dll
 0000:fffe0000       .debug$S                   791e0000     citkcore:citkCore.dll
 0000:fffe0000       .debug$S                   791e0000     citkcore:citkCore.dll
 0000:fffe0000       .debug$S                   791e0000     citkcore:citkCore.dll
 0000:fffe0000       .debug$S                   791e0000     citkcore:citkCore.dll
 0000:fffe0000       .debug$S                   791e0000     citkcore:citkCore.dll
 0000:fffe0000       .debug$S                   791e0000     citkcore:citkCore.dll
 0000:fffe0000       .debug$S                   791e0000     citkcore:citkCore.dll
 0000:fffe0000       .debug$S                   791e0000     citkcore:citkCore.dll
 0000:fffe0000       .debug$S                   791e0000     citkcore:citkCore.dll
 0000:fffe0000       .debug$S                   791e0000     citkcore:citkCore.dll
 0000:fffe0000       .debug$S                   791e0000     citkcore:citkCore.dll
 0000:fffe0000       .debug$S                   791e0000     citkcore:citkCore.dll
 0000:fffe0000       .debug$S                   791e0000     citkcore:citkCore.dll
 0000:fffe0000       .debug$S                   791e0000     citkcore:citkCore.dll
 0000:fffe0000       .debug$S                   791e0000     citkcore:citkCore.dll
 0000:fffe0000       .debug$S                   791e0000     citkcore:citkCore.dll
 0000:fffe0000       .debug$S                   791e0000     citkcore:citkCore.dll
 0000:fffe0000       .debug$S                   791e0000     citkcore:citkCore.dll
 0000:fffe0000       .debug$S                   791e0000     citkcore:citkCore.dll
 0000:fffe0000       .debug$S                   791e0000     citkcore:citkCore.dll
 0000:fffe0000       .debug$S                   791e0000     citkcore:citkCore.dll
 0000:fffe0000       .debug$S                   791e0000     citkcore:citkCore.dll
 0000:fffe0000       .debug$S                   791e0000     citkcore:citkCore.dll
 0000:fffe0000       .debug$S                   791e0000     citkcore:citkCore.dll
 0000:fffe0000       .debug$S                   791e0000     citkcore:citkCore.dll
 0000:fffe0000       .debug$S                   791e0000     citkcore:citkCore.dll
 0000:fffe0000       .debug$S                   791e0000     citkcore:citkCore.dll
 0000:fffe0000       .debug$S                   791e0000     citkcore:citkCore.dll
 0000:fffe0000       .debug$S                   791e0000     citkcore:citkCore.dll
 0000:fffe0000       .debug$S                   791e0000     citkcore:citkCore.dll
 0000:fffe0000       .debug$S                   791e0000     citkcore:citkCore.dll
 0000:fffe0000       .debug$S                   791e0000     citkcore:citkCore.dll
 0000:fffe0000       .debug$S                   791e0000     citkcore:citkCore.dll
 0000:fffe0000       .debug$S                   791e0000     citkcore:citkCore.dll
 0000:fffe0000       .debug$S                   791e0000     citkcore:citkCore.dll
 0000:fffe0000       .debug$S                   791e0000     citkcore:citkCore.dll
 0000:fffe0000       .debug$S                   791e0000     citkcore:citkCore.dll
 0000:fffe0000       .debug$S                   791e0000     citkcore:citkCore.dll
 0000:fffe0000       .debug$S                   791e0000     ucrt:api-ms-win-crt-multibyte-l1-1-0.dll
 0000:fffe0000       .debug$S                   791e0000     ucrt:api-ms-win-crt-multibyte-l1-1-0.dll
 0000:fffe0000       .debug$S                   791e0000     ucrt:api-ms-win-crt-multibyte-l1-1-0.dll
 0000:fffe0000       .debug$S                   791e0000     ucrt:api-ms-win-crt-multibyte-l1-1-0.dll
 0000:fffe0000       .debug$S                   791e0000     ucrt:api-ms-win-crt-heap-l1-1-0.dll
 0000:fffe0000       .debug$S                   791e0000     ucrt:api-ms-win-crt-heap-l1-1-0.dll
 0000:fffe0000       .debug$S                   791e0000     ucrt:api-ms-win-crt-heap-l1-1-0.dll
 0000:fffe0000       .debug$S                   791e0000     ucrt:api-ms-win-crt-heap-l1-1-0.dll
 0000:fffe0000       .debug$S                   791e0000     ucrt:api-ms-win-crt-convert-l1-1-0.dll
 0000:fffe0000       .debug$S                   791e0000     citkcore:citkCore.dll
 0000:fffe0000       .debug$S                   791e0000     citkcore:citkCore.dll
 0000:fffe0000       .debug$S                   791e0000     citkcore:citkCore.dll
 0000:fffe0000       .debug$S                   791e0000     citkcore:citkCore.dll
 0000:fffe0000       .debug$S                   791e0000     citkcore:citkCore.dll
 0000:fffe0000       .debug$S                   791e0000     citkcore:citkCore.dll
 0000:fffe0000       .debug$S                   791e0000     citkcore:citkCore.dll
 0000:fffe0000       .debug$S                   791e0000     citkcore:citkCore.dll
 0000:fffe0000       .debug$S                   791e0000     citkcore:citkCore.dll
 0000:fffe0000       .debug$S                   791e0000     citkcore:citkCore.dll
 0000:fffe0000       .debug$S                   791e0000     citkcore:citkCore.dll
 0000:fffe0000       .debug$S                   791e0000     citkcore:citkCore.dll
 0000:fffe0000       .debug$S                   791e0000     citkcore:citkCore.dll
 0000:fffe0000       .debug$S                   791e0000     citkcore:citkCore.dll
 0000:fffe0000       .debug$S                   791e0000     citkcore:citkCore.dll
 0000:fffe0000       .debug$S                   791e0000     citkcore:citkCore.dll
 0000:fffe0000       .debug$S                   791e0000     citkcore:citkCore.dll
 0000:fffe0000       .debug$S                   791e0000     citkcore:citkCore.dll
 0000:fffe0000       .debug$S                   791e0000     citkcore:citkCore.dll
 0000:fffe0000       .debug$S                   791e0000     citkcore:citkCore.dll
 0000:fffe0000       .debug$S                   791e0000     citkcore:citkCore.dll
 0000:fffe0000       .debug$S                   791e0000     citkcore:citkCore.dll
 0000:fffe0000       .debug$S                   791e0000     citkcore:citkCore.dll
 0000:fffe0000       .debug$S                   791e0000     citkcore:citkCore.dll
 0000:fffe0000       .debug$S                   791e0000     citkcore:citkCore.dll
 0000:fffe0000       .debug$S                   791e0000     citkcore:citkCore.dll
 0000:fffe0000       .debug$S                   791e0000     citkcore:citkCore.dll
 0000:fffe0000       .debug$S                   791e0000     citkcore:citkCore.dll
 0000:fffe0000       .debug$S                   791e0000     citkcore:citkCore.dll
 0000:fffe0000       .debug$S                   791e0000     citkcore:citkCore.dll
 0000:fffe0000       .debug$S                   791e0000     citkcore:citkCore.dll
 0000:fffe0000       .debug$S                   791e0000     citkcore:citkCore.dll
 0000:fffe0000       .debug$S                   791e0000     citkcore:citkCore.dll
 0000:fffe0000       .debug$S                   791e0000     citkcore:citkCore.dll
 0000:fffe0000       .debug$S                   791e0000     citkcore:citkCore.dll
 0000:fffe0000       .debug$S                   791e0000     citkcore:citkCore.dll
 0000:fffe0000       .debug$S                   791e0000     citkcore:citkCore.dll
 0000:fffe0000       .debug$S                   791e0000     citkcore:citkCore.dll
 0000:fffe0000       .debug$S                   791e0000     citkcore:citkCore.dll
 0000:fffe0000       .debug$S                   791e0000     citkcore:citkCore.dll
 0000:fffe0000       .debug$S                   791e0000     citkcore:citkCore.dll
 0000:fffe0000       .debug$S                   791e0000     citkcore:citkCore.dll
 0000:fffe0000       .debug$S                   791e0000     citkcore:citkCore.dll
 0000:fffe0000       .debug$S                   791e0000     citkcore:citkCore.dll
 0000:fffe0000       .debug$S                   791e0000     citkcore:citkCore.dll
 0000:fffe0000       .debug$S                   791e0000     citkcore:citkCore.dll
 0000:fffe0000       .debug$S                   791e0000     citkcore:citkCore.dll
 0000:fffe0000       .debug$S                   791e0000     citkcore:citkCore.dll
 0000:fffe0000       .debug$S                   791e0000     citkcore:citkCore.dll
 0000:fffe0000       .debug$S                   791e0000     citkcore:citkCore.dll
 0000:fffe0000       .debug$S                   791e0000     citkcore:citkCore.dll
 0000:fffe0000       .debug$S                   791e0000     citkcore:citkCore.dll
 0000:fffe0000       .debug$S                   791e0000     citkcore:citkCore.dll
 0000:fffe0000       .debug$S                   791e0000     citkcore:citkCore.dll
 0000:fffe0000       .debug$S                   791e0000     citkcore:citkCore.dll
 0000:fffe0000       .debug$S                   791e0000     citkcore:citkCore.dll
 0000:fffe0000       .debug$S                   791e0000     citkcore:citkCore.dll
 0000:fffe0000       .debug$S                   791e0000     citkcore:citkCore.dll
 0000:fffe0000       .debug$S                   791e0000     citkcore:citkCore.dll
 0000:fffe0000       .debug$S                   791e0000     citkcore:citkCore.dll
 0000:fffe0000       .debug$S                   791e0000     citkcore:citkCore.dll
 0000:fffe0000       .debug$S                   791e0000     citkcore:citkCore.dll
 0000:fffe0000       .debug$S                   791e0000     citkcore:citkCore.dll
 0000:fffe0000       .debug$S                   791e0000     citkcore:citkCore.dll
 0000:fffe0000       .debug$S                   791e0000     citkcore:citkCore.dll
 0000:fffe0000       .debug$S                   791e0000     citkcore:citkCore.dll
 0000:fffe0000       .debug$S                   791e0000     citkcore:citkCore.dll
 0000:fffe0000       .debug$S                   791e0000     citkcore:citkCore.dll
 0000:fffe0000       .debug$S                   791e0000     citkcore:citkCore.dll
 0000:fffe0000       .debug$S                   791e0000     citkcore:citkCore.dll
 0000:fffe0000       .debug$S                   791e0000     citkcore:citkCore.dll
 0000:fffe0000       .debug$S                   791e0000     citkcore:citkCore.dll
 0000:fffe0000       .debug$S                   791e0000     citkcore:citkCore.dll
 0000:fffe0000       .debug$S                   791e0000     citkcore:citkCore.dll
 0000:fffe0000       .debug$S                   791e0000     citkcore:citkCore.dll
 0000:fffe0000       .debug$S                   791e0000     citkcore:citkCore.dll
 0000:fffe0000       .debug$S                   791e0000     citkcore:citkCore.dll
 0000:fffe0000       .debug$S                   791e0000     citkcore:citkCore.dll
 0000:fffe0000       .debug$S                   791e0000     citkcore:citkCore.dll
 0000:fffe0000       .debug$S                   791e0000     citkcore:citkCore.dll
 0000:fffe0000       .debug$S                   791e0000     citkcore:citkCore.dll
 0000:fffe0000       .debug$S                   791e0000     citkcore:citkCore.dll
 0000:fffe0000       .debug$S                   791e0000     citkcore:citkCore.dll
 0000:fffe0000       .debug$S                   791e0000     citkcore:citkCore.dll
 0000:fffe0000       .debug$S                   791e0000     citkcore:citkCore.dll
 0000:fffe0000       .debug$S                   791e0000     citkcore:citkCore.dll
 0000:fffe0000       .debug$S                   791e0000     citkcore:citkCore.dll
 0000:fffe0000       .debug$S                   791e0000     citkcore:citkCore.dll
 0000:fffe0000       .debug$S                   791e0000     citkcore:citkCore.dll
 0000:fffe0000       .debug$S                   791e0000     citkcore:citkCore.dll
 0000:fffe0000       .debug$S                   791e0000     citkcore:citkCore.dll
 0000:fffe0000       .debug$S                   791e0000     citkcore:citkCore.dll
 0000:fffe0000       .debug$S                   791e0000     citkcore:citkCore.dll
 0000:fffe0000       .debug$S                   791e0000     citkcore:citkCore.dll
 0000:fffe0000       .debug$S                   791e0000     citkcore:citkCore.dll
 0000:fffe0000       .debug$S                   791e0000     citkcore:citkCore.dll
 0000:fffe0000       .debug$S                   791e0000     citkcore:citkCore.dll
 0000:fffe0000       .debug$S                   791e0000     citkcore:citkCore.dll
 0000:fffe0000       .debug$S                   791e0000     citkcore:citkCore.dll
 0000:fffe0000       .debug$S                   791e0000     citkcore:citkCore.dll
 0000:fffe0000       .debug$S                   791e0000     citkcore:citkCore.dll
 0000:fffe0000       .debug$S                   791e0000     citkcore:citkCore.dll
 0000:fffe0000       .debug$S                   791e0000     citkcore:citkCore.dll
 0000:fffe0000       .debug$S                   791e0000     citkcore:citkCore.dll
 0000:fffe0000       .debug$S                   791e0000     citkcore:citkCore.dll
 0000:fffe0000       .debug$S                   791e0000     citkcore:citkCore.dll
 0000:fffe0000       .debug$S                   791e0000     citkcore:citkCore.dll
 0000:fffe0000       .debug$S                   791e0000     citkcore:citkCore.dll
 0000:fffe0000       .debug$S                   791e0000     citkcore:citkCore.dll
 0000:fffe0000       .debug$S                   791e0000     citkcore:citkCore.dll
 0000:fffe0000       .debug$S                   791e0000     citkcore:citkCore.dll
 0000:fffe0000       .debug$S                   791e0000     citkcore:citkCore.dll
 0000:fffe0000       .debug$S                   791e0000     citkcore:citkCore.dll
 0000:fffe0000       .debug$S                   791e0000     citkcore:citkCore.dll
 0000:fffe0000       .debug$S                   791e0000     citkcore:citkCore.dll
 0000:fffe0000       .debug$S                   791e0000     citkcore:citkCore.dll
 0000:fffe0000       .debug$S                   791e0000     citkcore:citkCore.dll
 0000:fffe0000       .debug$S                   791e0000     citkcore:citkCore.dll
 0000:fffe0000       .debug$S                   791e0000     citkcore:citkCore.dll
 0000:fffe0000       .debug$S                   791e0000     citkcore:citkCore.dll
 0000:fffe0000       .debug$S                   791e0000     citkcore:citkCore.dll
 0000:fffe0000       .debug$S                   791e0000     citkcore:citkCore.dll
 0000:fffe0000       .debug$S                   791e0000     citkcore:citkCore.dll
 0000:fffe0000       .debug$S                   791e0000     citkcore:citkCore.dll
 0000:fffe0000       .debug$S                   791e0000     citkcore:citkCore.dll
 0000:fffe0000       .debug$S                   791e0000     citkcore:citkCore.dll
 0000:fffe0000       .debug$S                   791e0000     citkcore:citkCore.dll
 0000:fffe0000       .debug$S                   791e0000     citkcore:citkCore.dll
 0000:fffe0000       .debug$S                   791e0000     citkcore:citkCore.dll
 0000:fffe0000       .debug$S                   791e0000     citkcore:citkCore.dll
 0000:fffe0000       .debug$S                   791e0000     citkcore:citkCore.dll
 0000:fffe0000       .debug$S                   791e0000     citkcore:citkCore.dll
 0000:fffe0000       .debug$S                   791e0000     citkcore:citkCore.dll
 0000:fffe0000       .debug$S                   791e0000     citkcore:citkCore.dll
 0000:fffe0000       .debug$S                   791e0000     citkcore:citkCore.dll
 0000:fffe0000       .debug$S                   791e0000     citkcore:citkCore.dll
 0000:fffe0000       .debug$S                   791e0000     citkcore:citkCore.dll
 0000:fffe0000       .debug$S                   791e0000     citkcore:citkCore.dll
 0000:fffe0000       .debug$S                   791e0000     citkcore:citkCore.dll
 0000:fffe0000       .debug$S                   791e0000     citkcore:citkCore.dll
 0000:fffe0000       .debug$S                   791e0000     citkcore:citkCore.dll
 0000:fffe0000       .debug$S                   791e0000     citkcore:citkCore.dll
 0000:fffe0000       .debug$S                   791e0000     citkcore:citkCore.dll
 0000:fffe0000       .debug$S                   791e0000     citkcore:citkCore.dll
 0000:fffe0000       .debug$S                   791e0000     citkcore:citkCore.dll
 0000:fffe0000       .debug$S                   791e0000     citkcore:citkCore.dll
 0000:fffe0000       .debug$S                   791e0000     citkcore:citkCore.dll
 0000:fffe0000       .debug$S                   791e0000     citkcore:citkCore.dll
 0000:fffe0000       .debug$S                   791e0000     citkcore:citkCore.dll
 0000:fffe0000       .debug$S                   791e0000     citkcore:citkCore.dll
 0000:fffe0000       .debug$S                   791e0000     citkcore:citkCore.dll
 0000:fffe0000       .debug$S                   791e0000     citkcore:citkCore.dll
 0000:fffe0000       .debug$S                   791e0000     citkcore:citkCore.dll
 0000:fffe0000       .debug$S                   791e0000     citkcore:citkCore.dll
 0000:fffe0000       .debug$S                   791e0000     citkcore:citkCore.dll
 0000:fffe0000       .debug$S                   791e0000     citkcore:citkCore.dll
 0000:fffe0000       .debug$S                   791e0000     citkcore:citkCore.dll
 0000:fffe0000       .debug$S                   791e0000     citkcore:citkCore.dll
 0000:fffe0000       .debug$S                   791e0000     citkcore:citkCore.dll
 0000:fffe0000       .debug$S                   791e0000     citkcore:citkCore.dll
 0000:fffe0000       .debug$S                   791e0000     ucrt:api-ms-win-crt-convert-l1-1-0.dll
 0000:fffe0000       .debug$S                   791e0000     ucrt:api-ms-win-crt-convert-l1-1-0.dll
 0000:fffe0000       .debug$S                   791e0000     citkcore:citkCore.dll
 0000:fffe0000       .debug$S                   791e0000     citkcore:citkCore.dll
 0000:fffe0000       .debug$S                   791e0000     citkcore:citkCore.dll
 0000:fffe0000       .debug$S                   791e0000     citkcore:citkCore.dll
 0000:fffe0000       .debug$S                   791e0000     citkcore:citkCore.dll
 0000:fffe0000       .debug$S                   791e0000     citkcore:citkCore.dll
 0000:fffe0000       .debug$S                   791e0000     citkcore:citkCore.dll
 0000:fffe0000       .debug$S                   791e0000     citkcore:citkCore.dll
 0000:fffe0000       .debug$S                   791e0000     citkUtils.exp
 0000:fffe0000       .debug$S                   791e0000     citkcore:citkCore.dll
 0000:fffe0000       .debug$S                   791e0000     ucrt:api-ms-win-crt-convert-l1-1-0.dll
 0000:fffe0000       .debug$S                   791e0000     citkcore:citkCore.dll
 0001:00000000       ??__E__citk_plugin@@YAXXZ  791e1000 f   citkUtils.obj
 0001:00000080       ??__E_CD_citkUtils@@YAXXZ  791e1080 f   citkUtils.obj
 0001:00000100       ??__E?MeasPool@DAxisTracker@@0V?$DMemoryPool@Umeas_t@DAxisTracker@@@citkTypes@@A@@YAXXZ 791e1100 f   citk_AxisTracker.obj
 0001:00000110       ??__E_CD_CTNoiseTexture@@YAXXZ 791e1110 f   citk_NoiseTexture.obj
 0001:000001a0       ??__E_CD_CTPIDController@@YAXXZ 791e11a0 f   citk_PIDController.obj
 0001:00000230       ??__E?SharedTimer@DProfiler@citk@@0V?$SafePtr@VCTTimer@citk@@@2@A@@YAXXZ 791e1230 f   citk_Profiler.obj
 0001:00000260       ??__E?msgs@DProfiler@citk@@0V?$ArrayVal@VString@citkTypes@@$0A@@citkTypes@@A@@YAXXZ 791e1260 f   citk_Profiler.obj
 0001:00000270       ??__E_CD_CT2DFace@@YAXXZ   791e1270 f   citk_2DFace.obj
 0001:00000300       ??__E_CD_CTAbstractMaterial@@YAXXZ 791e1300 f   citk_AbstractMaterials.obj
 0001:00000390       ??__E?All@CTAbstractMaterial@@0V?$ArrayPtr@VCTAbstractMaterial@@@citkTypes@@A@@YAXXZ 791e1390 f   citk_AbstractMaterials.obj
 0001:000003a0       ??__E_CD_CTObjectBlinker@@YAXXZ 791e13a0 f   citk_Blinker.obj
 0001:00000430       ??__E_CD_CTObjectBlinkerED@@YAXXZ 791e1430 f   citk_Blinker.obj
 0001:000004c0       ??__E?WorldPivotRS@CTObjectBlinker@@0V?$StrongPtr@VCTRenderState@citk@@@citk@@A@@YAXXZ 791e14c0 f   citk_Blinker.obj
 0001:000004d0       ??__E?TransPivotRS@CTObjectBlinker@@0V?$StrongPtr@VCTRenderState@citk@@@citk@@A@@YAXXZ 791e14d0 f   citk_Blinker.obj
 0001:000004e0       ??__E?WorldPivotVD@CTObjectBlinker@@0V?$StrongPtr@VCTVertexData@citk@@@citk@@A@@YAXXZ 791e14e0 f   citk_Blinker.obj
 0001:000004f0       ??__E?TransPivotVD@CTObjectBlinker@@0V?$StrongPtr@VCTVertexData@citk@@@citk@@A@@YAXXZ 791e14f0 f   citk_Blinker.obj
 0001:00000500       ??__E_CD_CTMessageHud@@YAXXZ 791e1500 f   citk_MessageHud.obj
 0001:00000590       ??__E_CD_CTSoloViewer@@YAXXZ 791e1590 f   citk_SoloViewer.obj
 0001:00000620       ??__E_CD_CTToolTip@@YAXXZ  791e1620 f   citk_ToolTip.obj
 0001:000006b0       ??__E_CD_IVPleh@@YAXXZ     791e16b0 f   citk_Volumes.obj
 0001:00000740       ??__E_CD_IVTreeProcessor@@YAXXZ 791e1740 f   citk_Volumes.obj
 0001:0000b49b       ?find_pe_section@@YAPAU_IMAGE_SECTION_HEADER@@QAEI@Z 791ec49b f   MSVCRT:utility.obj
 0001:0000b943       ?__scrt_initialize_thread_safe_statics@@YAHXZ 791ec943 f   MSVCRT:thread_safe_statics.obj
 0001:0000b96a       ?__scrt_initialize_thread_safe_statics_platform_specific@@YAXXZ 791ec96a f   MSVCRT:thread_safe_statics.obj
 0001:0000ba3a       ?__scrt_uninitialize_thread_safe_statics@@YAXXZ 791eca3a f   MSVCRT:thread_safe_statics.obj
 0001:0000bc09       ?dllmain_crt_dispatch@@YGHQAUHINSTANCE__@@KQAX@Z 791ecc09 f   MSVCRT:dll_dllmain.obj
 0001:0000bc5c       ?dllmain_crt_process_attach@@YAHQAUHINSTANCE__@@QAX@Z 791ecc5c f   MSVCRT:dll_dllmain.obj
 0001:0000bd5b       ?dllmain_crt_process_detach@@YAH_N@Z 791ecd5b f   MSVCRT:dll_dllmain.obj
 0001:0000bde3       ?dllmain_dispatch@@YAHQAUHINSTANCE__@@KQAX@Z 791ecde3 f   MSVCRT:dll_dllmain.obj
 0001:0000c210       $$000000                   791ed210     MSVCRT:_sehprolg4_.obj
 0001:0000c3aa       ___get_entropy             791ed3aa f   MSVCRT:gs_support.obj
 0001:0000c6a0       $$000000                   791ed6a0     MSVCRT:alloca16.obj
 0001:0000c6d0       $$000000                   791ed6d0     MSVCRT:chkstk.obj
 0001:0000c710       __unwindfunclet$??__E__citk_plugin@@YAXXZ$0 791ed710 f   citkUtils.obj
 0001:0000c71b       __ehhandler$??__E__citk_plugin@@YAXXZ 791ed71b f   citkUtils.obj
 0001:0000c730       __ehhandler$??_ECTSoloViewer@@UAEPAXI@Z 791ed730 f   citk_SoloViewer.obj
 0001:0000c730       __ehhandler$??1?$StrongPtr@VCTWireFrameProperty@citk@@@citk@@QAE@XZ 791ed730 f   citk_Blinker.obj
 0001:0000c730       __ehhandler$??1?$StrongPtr@VCTBox@citk@@@citk@@QAE@XZ 791ed730 f   citk_Blinker.obj
 0001:0000c730       __ehhandler$??1?$StrongPtr@VCTGeometry@citk@@@citk@@QAE@XZ 791ed730 f   citk_Blinker.obj
 0001:0000c730       __ehhandler$??1?$StrongPtr@VCTBitmapExport@citk@@@citk@@QAE@XZ 791ed730 f   citk_Snapper.obj
 0001:0000c730       __ehhandler$??1?$StrongPtr@VCTGroup@citk@@@citk@@QAE@XZ 791ed730 f   citk_Blinker.obj
 0001:0000c730       __ehhandler$??1?$StrongPtr@VCTObjectBlinkerED@@@citk@@QAE@XZ 791ed730 f   citk_Blinker.obj
 0001:0000c730       __ehhandler$??1IVPleh@@UAE@XZ 791ed730 f   citk_Volumes.obj
 0001:0000c730       __ehhandler$??1?$StrongPtr@VCTRenderState@citk@@@citk@@QAE@XZ 791ed730 f   citk_AbstractMaterials.obj
 0001:0000c730       __ehhandler$??1?$StrongPtr@VCTTexture@citk@@@citk@@QAE@XZ 791ed730 f   citk_Snapper.obj
 0001:0000c730       __ehhandler$??1?$StrongPtr@VCTTextureProperty@citk@@@citk@@QAE@XZ 791ed730 f   citk_ToolTip.obj
 0001:0000c730       __ehhandler$??1?$StrongPtr@VCTBitmapImport@citk@@@citk@@QAE@XZ 791ed730 f   citk_ToolTip.obj
 0001:0000c730       __ehhandler$??_ECTPIDController@citk@@UAEPAXI@Z 791ed730 f   citk_PIDController.obj
 0001:0000c730       __ehhandler$??1?$StrongPtr@VCTVertexData@citk@@@citk@@QAE@XZ 791ed730 f   citk_2DFace.obj
 0001:0000c730       __ehhandler$??1?$SafePtr@VCTEntity@citk@@@citk@@UAE@XZ 791ed730 f   citk_2DFace.obj
 0001:0000c730       __ehhandler$??_ECT2DFace@@UAEPAXI@Z 791ed730 f   citk_2DFace.obj
 0001:0000c730       __ehhandler$??1?$StrongPtr@VCTAbstractMaterial@@@citk@@QAE@XZ 791ed730 f   citk_AbstractMaterials.obj
 0001:0000c730       __ehhandler$??1?$StrongPtr@VIVPleh@@@citk@@QAE@XZ 791ed730 f   citk_Volumes.obj
 0001:0000c730       __ehhandler$??1?$SafeArray@VCTGroup@citk@@@citk@@UAE@XZ 791ed730 f   citk_Volumes.obj
 0001:0000c730       __ehhandler$??1?$SafeArray@VCTEntity@citk@@@citk@@UAE@XZ 791ed730 f   citk_Volumes.obj
 0001:0000c730       __ehhandler$??1?$StrongPtr@VCTLight@citk@@@citk@@QAE@XZ 791ed730 f   citk_SoloViewer.obj
 0001:0000c730       __ehhandler$??1?$StrongPtr@VCTEntity@citk@@@citk@@QAE@XZ 791ed730 f   citk_SoloViewer.obj
 0001:0000c730       __ehhandler$??1?$StrongPtr@VCTShape@citk@@@citk@@QAE@XZ 791ed730 f   citk_SoloViewer.obj
 0001:0000c730       __ehhandler$??1?$SafePtr@VCTRenderTarget@citk@@@citk@@UAE@XZ 791ed730 f   citk_Snapper.obj
 0001:0000c730       __ehhandler$??_ECTToolTip@@UAEPAXI@Z 791ed730 f   citk_ToolTip.obj
 0001:0000c730       __ehhandler$??1DAxisTracker@@QAE@XZ 791ed730 f   citk_AxisTracker.obj
 0001:0000c730       __ehhandler$??1?$StrongPtr@VCTRenderFlagsProperty@citk@@@citk@@QAE@XZ 791ed730 f   citk_2DFace.obj
 0001:0000c730       __ehhandler$??1?$StrongPtr@VCTAlphaProperty@citk@@@citk@@QAE@XZ 791ed730 f   citk_2DFace.obj
 0001:0000c730       __ehhandler$??_ECTMessageHud@@EAEPAXI@Z 791ed730 f   citk_MessageHud.obj
 0001:0000c730       __ehhandler$??1?$StrongArray@VCT3DText@citk@@@citk@@QAE@XZ 791ed730 f   citk_MessageHud.obj
 0001:0000c730       __ehhandler$??1?$StrongPtr@VCT3DText@citk@@@citk@@QAE@XZ 791ed730 f   citk_MessageHud.obj
 0001:0000c730       __ehhandler$??_ECTAbstractMaterial@@MAEPAXI@Z 791ed730 f   citk_AbstractMaterials.obj
 0001:0000c730       __ehhandler$??_ECTObjectBlinkerED@@UAEPAXI@Z 791ed730 f   citk_Blinker.obj
 0001:0000c730       __ehhandler$??1?$StrongPtr@VCTMaterialProperty@citk@@@citk@@QAE@XZ 791ed730 f   citk_AbstractMaterials.obj
 0001:0000c740       __unwindfunclet$?Create@CD_CTNoiseTexture@@UAEPAXXZ$0 791ed740 f   citk_NoiseTexture.obj
 0001:0000c752       __ehhandler$?Create@CD_CTNoiseTexture@@UAEPAXXZ 791ed752 f   citk_NoiseTexture.obj
 0001:0000c760       __unwindfunclet$?DoImport@CTNoiseTexture@@MAE_NPBD@Z$0 791ed760 f   citk_NoiseTexture.obj
 0001:0000c76f       __unwindfunclet$?DoImport@CTNoiseTexture@@MAE_NPBD@Z$1 791ed76f f   citk_NoiseTexture.obj
 0001:0000c781       __ehhandler$?DoImport@CTNoiseTexture@@MAE_NPBD@Z 791ed781 f   citk_NoiseTexture.obj
 0001:0000c790       __unwindfunclet$?Create@CD_CTPIDController@@UAEPAXXZ$0 791ed790 f   citk_PIDController.obj
 0001:0000c7a2       __ehhandler$?Create@CD_CTPIDController@@UAEPAXXZ 791ed7a2 f   citk_PIDController.obj
 0001:0000c7b0       __ehhandler$?Animate@CTMessageHud@@AAAXJ@Z 791ed7b0 f   citk_MessageHud.obj
 0001:0000c7b0       __ehhandler$??__F?TransPivotRS@CTObjectBlinker@@0V?$StrongPtr@VCTRenderState@citk@@@citk@@A@@YAXXZ 791ed7b0 f   citk_Blinker.obj
 0001:0000c7b0       __ehhandler$??__F?WorldPivotRS@CTObjectBlinker@@0V?$StrongPtr@VCTRenderState@citk@@@citk@@A@@YAXXZ 791ed7b0 f   citk_Blinker.obj
 0001:0000c7b0       __ehhandler$??__F?TransPivotVD@CTObjectBlinker@@0V?$StrongPtr@VCTVertexData@citk@@@citk@@A@@YAXXZ 791ed7b0 f   citk_Blinker.obj
 0001:0000c7b0       __ehhandler$??__F?WorldPivotVD@CTObjectBlinker@@0V?$StrongPtr@VCTVertexData@citk@@@citk@@A@@YAXXZ 791ed7b0 f   citk_Blinker.obj
 0001:0000c7b0       __ehhandler$??__F?SharedTimer@DProfiler@citk@@0V?$SafePtr@VCTTimer@citk@@@2@A@@YAXXZ 791ed7b0 f   citk_Profiler.obj
 0001:0000c7c0       __unwindfunclet$??0DProfiler@citk@@QAE@PBD@Z$0 791ed7c0 f   citk_Profiler.obj
 0001:0000c7c8       __unwindfunclet$??0DProfiler@citk@@QAE@PBD@Z$1 791ed7c8 f   citk_Profiler.obj
 0001:0000c7d3       __ehhandler$??0DProfiler@citk@@QAE@PBD@Z 791ed7d3 f   citk_Profiler.obj
 0001:0000c7e0       __ehhandler$??1DProfiler@citk@@QAE@XZ 791ed7e0 f   citk_Profiler.obj
 0001:0000c7f0       __ehhandler$??1?$DevicePtr@VCTTimer@citk@@$00@citk@@QAE@XZ 791ed7f0 f   citk_Profiler.obj
 0001:0000c7f0       __ehhandler$??_G?$SafePtr@VCTRenderTarget@citk@@@citk@@UAEPAXI@Z 791ed7f0 f   citk_Snapper.obj
 0001:0000c7f0       __ehhandler$??1?$ServicePtr@VCTEngineManager@citk@@@citk@@QAE@XZ 791ed7f0 f   citk_Snapper.obj
 0001:0000c7f0       __ehhandler$??1CTMessageHud@@EAE@XZ 791ed7f0 f   citk_MessageHud.obj
 0001:0000c7f0       __ehhandler$??_EIVPleh@@UAEPAXI@Z 791ed7f0 f   citk_Volumes.obj
 0001:0000c7f0       __ehhandler$??_G?$SafePtr@VCTEntity@citk@@@citk@@UAEPAXI@Z 791ed7f0 f   citk_2DFace.obj
 0001:0000c7f0       __ehhandler$??_G?$SafePtr@VCTTimer@citk@@@citk@@UAEPAXI@Z 791ed7f0 f   citk_Profiler.obj
 0001:0000c800       __unwindfunclet$??0DSnapper@@QAE@ABV0@@Z$0 791ed800 f   citk_Snapper.obj
 0001:0000c80e       __unwindfunclet$??0DSnapper@@QAE@ABV0@@Z$1 791ed80e f   citk_Snapper.obj
 0001:0000c81c       __unwindfunclet$??0DSnapper@@QAE@ABV0@@Z$3 791ed81c f   citk_Snapper.obj
 0001:0000c825       __ehhandler$??0DSnapper@@QAE@ABV0@@Z 791ed825 f   citk_Snapper.obj
 0001:0000c830       __unwindfunclet$??0DSnapper@@QAE@PBD@Z$0 791ed830 f   citk_Snapper.obj
 0001:0000c83e       __unwindfunclet$??0DSnapper@@QAE@PBD@Z$1 791ed83e f   citk_Snapper.obj
 0001:0000c84c       __unwindfunclet$??0DSnapper@@QAE@PBD@Z$2 791ed84c f   citk_Snapper.obj
 0001:0000c85a       __unwindfunclet$??0DSnapper@@QAE@PBD@Z$4 791ed85a f   citk_Snapper.obj
 0001:0000c86c       __ehhandler$??0DSnapper@@QAE@PBD@Z 791ed86c f   citk_Snapper.obj
 0001:0000c880       __unwindfunclet$?Init@DSnapper@@QAEXPBDPAVCTRenderTarget@citk@@M@Z$0 791ed880 f   citk_Snapper.obj
 0001:0000c888       __ehhandler$?Init@DSnapper@@QAEXPBDPAVCTRenderTarget@citk@@M@Z 791ed888 f   citk_Snapper.obj
 0001:0000c8a0       __ehhandler$??1CT2DFace@@UAE@XZ 791ed8a0 f   citk_2DFace.obj
 0001:0000c8a0       __ehhandler$??1CTSoloViewer@@UAE@XZ 791ed8a0 f   citk_SoloViewer.obj
 0001:0000c8a0       __ehhandler$??1DSnapper@@QAE@XZ 791ed8a0 f   citk_Snapper.obj
 0001:0000c8b0       __unwindfunclet$?New@?$StrongPtr@VCTTexture@citk@@@citk@@QAEPAVCTTexture@2@XZ$0 791ed8b0 f   citk_Snapper.obj
 0001:0000c8b0       __unwindfunclet$?New@?$StrongPtr@VCTGeometry@citk@@@citk@@QAEPAVCTGeometry@2@XZ$0 791ed8b0 f   citk_Blinker.obj
 0001:0000c8c2       __ehhandler$?New@?$StrongPtr@VCTGeometry@citk@@@citk@@QAEPAVCTGeometry@2@XZ 791ed8c2 f   citk_Blinker.obj
 0001:0000c8c2       __ehhandler$?New@?$StrongPtr@VCTTexture@citk@@@citk@@QAEPAVCTTexture@2@XZ 791ed8c2 f   citk_Snapper.obj
 0001:0000c8d0       __unwindfunclet$?Copy@CT2DFace@@UBEPAVCTEntity@citk@@XZ$0 791ed8d0 f   citk_2DFace.obj
 0001:0000c8d0       __unwindfunclet$?Create@CD_CT2DFace@@UAEPAXXZ$0 791ed8d0 f   citk_2DFace.obj
 0001:0000c8e2       __ehhandler$?Copy@CT2DFace@@UBEPAVCTEntity@citk@@XZ 791ed8e2 f   citk_2DFace.obj
 0001:0000c8e2       __ehhandler$?Create@CD_CT2DFace@@UAEPAXXZ 791ed8e2 f   citk_2DFace.obj
 0001:0000c8f0       __unwindfunclet$??0CT2DFace@@QAE@XZ$0 791ed8f0 f   citk_2DFace.obj
 0001:0000c8f9       __unwindfunclet$??0CT2DFace@@QAE@XZ$1 791ed8f9 f   citk_2DFace.obj
 0001:0000c907       __unwindfunclet$??0CT2DFace@@QAE@XZ$2 791ed907 f   citk_2DFace.obj
 0001:0000c915       __unwindfunclet$??0CT2DFace@@QAE@XZ$3 791ed915 f   citk_2DFace.obj
 0001:0000c923       __unwindfunclet$??0CT2DFace@@QAE@XZ$4 791ed923 f   citk_2DFace.obj
 0001:0000c931       __unwindfunclet$??0CT2DFace@@QAE@XZ$6 791ed931 f   citk_2DFace.obj
 0001:0000c940       __unwindfunclet$??0CT2DFace@@QAE@XZ$7 791ed940 f   citk_2DFace.obj
 0001:0000c94f       __unwindfunclet$??0CT2DFace@@QAE@XZ$8 791ed94f f   citk_2DFace.obj
 0001:0000c95e       __ehhandler$??0CT2DFace@@QAE@XZ 791ed95e f   citk_2DFace.obj
 0001:0000c970       __unwindfunclet$??0CT2DFace@@QAE@PBV0@@Z$0 791ed970 f   citk_2DFace.obj
 0001:0000c979       __unwindfunclet$??0CT2DFace@@QAE@PBV0@@Z$1 791ed979 f   citk_2DFace.obj
 0001:0000c987       __unwindfunclet$??0CT2DFace@@QAE@PBV0@@Z$2 791ed987 f   citk_2DFace.obj
 0001:0000c995       __unwindfunclet$??0CT2DFace@@QAE@PBV0@@Z$3 791ed995 f   citk_2DFace.obj
 0001:0000c9a3       __unwindfunclet$??0CT2DFace@@QAE@PBV0@@Z$4 791ed9a3 f   citk_2DFace.obj
 0001:0000c9b1       __ehhandler$??0CT2DFace@@QAE@PBV0@@Z 791ed9b1 f   citk_2DFace.obj
 0001:0000c9c0       __unwindfunclet$?New@?$StrongPtr@VCTRenderState@citk@@@citk@@QAEPAVCTRenderState@2@XZ$0 791ed9c0 f   citk_2DFace.obj
 0001:0000c9c0       __unwindfunclet$?New@?$StrongPtr@VCTMaterialProperty@citk@@@citk@@QAEPAVCTMaterialProperty@2@XZ$0 791ed9c0 f   citk_AbstractMaterials.obj
 0001:0000c9cf       __ehhandler$?New@?$StrongPtr@VCTRenderState@citk@@@citk@@QAEPAVCTRenderState@2@XZ 791ed9cf f   citk_2DFace.obj
 0001:0000c9cf       __ehhandler$?New@?$StrongPtr@VCTMaterialProperty@citk@@@citk@@QAEPAVCTMaterialProperty@2@XZ 791ed9cf f   citk_AbstractMaterials.obj
 0001:0000c9e0       __unwindfunclet$?New@?$StrongPtr@VCTVertexData@citk@@@citk@@QAEPAVCTVertexData@2@XZ$0 791ed9e0 f   citk_2DFace.obj
 0001:0000c9f2       __ehhandler$?New@?$StrongPtr@VCTVertexData@citk@@@citk@@QAEPAVCTVertexData@2@XZ 791ed9f2 f   citk_2DFace.obj
 0001:0000ca00       __unwindfunclet$?Create@CD_CTObjectBlinkerED@@UAEPAXXZ$0 791eda00 f   citk_Blinker.obj
 0001:0000ca00       __unwindfunclet$?Create@CD_CTAbstractMaterial@@UAEPAXXZ$0 791eda00 f   citk_AbstractMaterials.obj
 0001:0000ca0f       __ehhandler$?Create@CD_CTAbstractMaterial@@UAEPAXXZ 791eda0f f   citk_AbstractMaterials.obj
 0001:0000ca0f       __ehhandler$?Create@CD_CTObjectBlinkerED@@UAEPAXXZ 791eda0f f   citk_Blinker.obj
 0001:0000ca20       __unwindfunclet$??0CTAbstractMaterial@@QAE@XZ$0 791eda20 f   citk_AbstractMaterials.obj
 0001:0000ca29       __unwindfunclet$??0CTAbstractMaterial@@QAE@XZ$1 791eda29 f   citk_AbstractMaterials.obj
 0001:0000ca34       __unwindfunclet$??0CTAbstractMaterial@@QAE@XZ$2 791eda34 f   citk_AbstractMaterials.obj
 0001:0000ca3f       __ehhandler$??0CTAbstractMaterial@@QAE@XZ 791eda3f f   citk_AbstractMaterials.obj
 0001:0000ca50       __ehhandler$??1CTObjectBlinker@@MAE@XZ 791eda50 f   citk_Blinker.obj
 0001:0000ca50       __ehhandler$??1CTAbstractMaterial@@MAE@XZ 791eda50 f   citk_AbstractMaterials.obj
 0001:0000ca60       __unwindfunclet$?CreateFor@CTAbstractMaterial@@SAPAV1@PAVCTEntity@citk@@ABUDColor@citkTypes@@@Z$0 791eda60 f   citk_AbstractMaterials.obj
 0001:0000ca68       __unwindfunclet$?CreateFor@CTAbstractMaterial@@SAPAV1@PAVCTEntity@citk@@ABUDColor@citkTypes@@@Z$3 791eda68 f   citk_AbstractMaterials.obj
 0001:0000ca77       __unwindfunclet$?CreateFor@CTAbstractMaterial@@SAPAV1@PAVCTEntity@citk@@ABUDColor@citkTypes@@@Z$1 791eda77 f   citk_AbstractMaterials.obj
 0001:0000ca7f       __ehhandler$?CreateFor@CTAbstractMaterial@@SAPAV1@PAVCTEntity@citk@@ABUDColor@citkTypes@@@Z 791eda7f f   citk_AbstractMaterials.obj
 0001:0000ca90       __unwindfunclet$?Orig@CTAbstractMaterial@@SAXPAVCTEntity@citk@@@Z$0 791eda90 f   citk_AbstractMaterials.obj
 0001:0000ca90       __unwindfunclet$?Abstract@CTAbstractMaterial@@SAXPAVCTEntity@citk@@@Z$0 791eda90 f   citk_AbstractMaterials.obj
 0001:0000ca98       __ehhandler$?Orig@CTAbstractMaterial@@SAXPAVCTEntity@citk@@@Z 791eda98 f   citk_AbstractMaterials.obj
 0001:0000ca98       __ehhandler$?Abstract@CTAbstractMaterial@@SAXPAVCTEntity@citk@@@Z 791eda98 f   citk_AbstractMaterials.obj
 0001:0000cab0       __ehhandler$??_ECTObjectBlinker@@MAEPAXI@Z 791edab0 f   citk_Blinker.obj
 0001:0000cab0       __ehhandler$??_GIVTreeProcessor@@UAEPAXI@Z 791edab0 f   citk_Volumes.obj
 0001:0000cac0       __unwindfunclet$?Create@CD_CTObjectBlinker@@UAEPAXXZ$0 791edac0 f   citk_Blinker.obj
 0001:0000cacf       __ehhandler$?Create@CD_CTObjectBlinker@@UAEPAXXZ 791edacf f   citk_Blinker.obj
 0001:0000cae0       __unwindfunclet$??0CTObjectBlinker@@QAE@XZ$0 791edae0 f   citk_Blinker.obj
 0001:0000cae9       __unwindfunclet$??0CTObjectBlinker@@QAE@XZ$1 791edae9 f   citk_Blinker.obj
 0001:0000caf4       __unwindfunclet$??0CTObjectBlinker@@QAE@XZ$2 791edaf4 f   citk_Blinker.obj
 0001:0000caff       __unwindfunclet$??0CTObjectBlinker@@QAE@XZ$3 791edaff f   citk_Blinker.obj
 0001:0000cb0a       __unwindfunclet$??0CTObjectBlinker@@QAE@XZ$4 791edb0a f   citk_Blinker.obj
 0001:0000cb12       __unwindfunclet$??0CTObjectBlinker@@QAE@XZ$5 791edb12 f   citk_Blinker.obj
 0001:0000cb21       __unwindfunclet$??0CTObjectBlinker@@QAE@XZ$6 791edb21 f   citk_Blinker.obj
 0001:0000cb30       __unwindfunclet$??0CTObjectBlinker@@QAE@XZ$7 791edb30 f   citk_Blinker.obj
 0001:0000cb3f       __ehhandler$??0CTObjectBlinker@@QAE@XZ 791edb3f f   citk_Blinker.obj
 0001:0000cb50       __unwindfunclet$?CreatePivot@CTObjectBlinker@@CAXXZ$0 791edb50 f   citk_Blinker.obj
 0001:0000cb59       __unwindfunclet$?CreatePivot@CTObjectBlinker@@CAXXZ$1 791edb59 f   citk_Blinker.obj
 0001:0000cb6b       __unwindfunclet$?CreatePivot@CTObjectBlinker@@CAXXZ$5 791edb6b f   citk_Blinker.obj
 0001:0000cb7a       __unwindfunclet$?CreatePivot@CTObjectBlinker@@CAXXZ$6 791edb7a f   citk_Blinker.obj
 0001:0000cb89       __unwindfunclet$?CreatePivot@CTObjectBlinker@@CAXXZ$2 791edb89 f   citk_Blinker.obj
 0001:0000cb91       __unwindfunclet$?CreatePivot@CTObjectBlinker@@CAXXZ$7 791edb91 f   citk_Blinker.obj
 0001:0000cba0       __unwindfunclet$?CreatePivot@CTObjectBlinker@@CAXXZ$8 791edba0 f   citk_Blinker.obj
 0001:0000cbaf       __unwindfunclet$?CreatePivot@CTObjectBlinker@@CAXXZ$3 791edbaf f   citk_Blinker.obj
 0001:0000cbb7       __unwindfunclet$?CreatePivot@CTObjectBlinker@@CAXXZ$9 791edbb7 f   citk_Blinker.obj
 0001:0000cbc6       __unwindfunclet$?CreatePivot@CTObjectBlinker@@CAXXZ$4 791edbc6 f   citk_Blinker.obj
 0001:0000cbce       __ehhandler$?CreatePivot@CTObjectBlinker@@CAXXZ 791edbce f   citk_Blinker.obj
 0001:0000cbe0       __unwindfunclet$?Clear@CTObjectBlinker@@QAEXXZ$0 791edbe0 f   citk_Blinker.obj
 0001:0000cbe8       __ehhandler$?Clear@CTObjectBlinker@@QAEXXZ 791edbe8 f   citk_Blinker.obj
 0001:0000cc00       __ehhandler$?GetBlinker@CTObjectBlinker@@SAPAV1@PAVCTEntity@citk@@@Z 791edc00 f   citk_Blinker.obj
 0001:0000cc10       __unwindfunclet$?OnDelete@CTObjectBlinker@@UAEXPAVCTAggregated@citk@@@Z$0 791edc10 f   citk_Blinker.obj
 0001:0000cc18       __ehhandler$?OnDelete@CTObjectBlinker@@UAEXPAVCTAggregated@citk@@@Z 791edc18 f   citk_Blinker.obj
 0001:0000cc30       __unwindfunclet$?SetObject@CTObjectBlinker@@QAE_NPAVCTEntity@citk@@ABUDColor@citkTypes@@_N2@Z$0 791edc30 f   citk_Blinker.obj
 0001:0000cc38       __unwindfunclet$?SetObject@CTObjectBlinker@@QAE_NPAVCTEntity@citk@@ABUDColor@citkTypes@@_N2@Z$2 791edc38 f   citk_Blinker.obj
 0001:0000cc47       __unwindfunclet$?SetObject@CTObjectBlinker@@QAE_NPAVCTEntity@citk@@ABUDColor@citkTypes@@_N2@Z$1 791edc47 f   citk_Blinker.obj
 0001:0000cc4f       __ehhandler$?SetObject@CTObjectBlinker@@QAE_NPAVCTEntity@citk@@ABUDColor@citkTypes@@_N2@Z 791edc4f f   citk_Blinker.obj
 0001:0000cc60       __unwindfunclet$?AddActualBlinker@CTObjectBlinker@@AAEXPAVCTEntity@citk@@_N1@Z$0 791edc60 f   citk_Blinker.obj
 0001:0000cc6f       __unwindfunclet$?AddActualBlinker@CTObjectBlinker@@AAEXPAVCTEntity@citk@@_N1@Z$2 791edc6f f   citk_Blinker.obj
 0001:0000cc77       __unwindfunclet$?AddActualBlinker@CTObjectBlinker@@AAEXPAVCTEntity@citk@@_N1@Z$1 791edc77 f   citk_Blinker.obj
 0001:0000cc7f       __ehhandler$?AddActualBlinker@CTObjectBlinker@@AAEXPAVCTEntity@citk@@_N1@Z 791edc7f f   citk_Blinker.obj
 0001:0000cc90       __unwindfunclet$?Create@CD_CTMessageHud@@UAEPAXXZ$0 791edc90 f   citk_MessageHud.obj
 0001:0000cca2       __ehhandler$?Create@CD_CTMessageHud@@UAEPAXXZ 791edca2 f   citk_MessageHud.obj
 0001:0000ccb0       __unwindfunclet$?_AddLine@CTMessageHud@@AAEXPBDABUDColor@citkTypes@@@Z$0 791edcb0 f   citk_MessageHud.obj
 0001:0000ccc2       __unwindfunclet$?_AddLine@CTMessageHud@@AAEXPBDABUDColor@citkTypes@@@Z$1 791edcc2 f   citk_MessageHud.obj
 0001:0000ccca       __ehhandler$?_AddLine@CTMessageHud@@AAEXPBDABUDColor@citkTypes@@@Z 791edcca f   citk_MessageHud.obj
 0001:0000cce0       __unwindfunclet$?GetText@CTMessageHud@@AAEPAVCT3DText@citk@@XZ$0 791edce0 f   citk_MessageHud.obj
 0001:0000cce8       __unwindfunclet$?GetText@CTMessageHud@@AAEPAVCT3DText@citk@@XZ$1 791edce8 f   citk_MessageHud.obj
 0001:0000ccfa       __ehhandler$?GetText@CTMessageHud@@AAEPAVCT3DText@citk@@XZ 791edcfa f   citk_MessageHud.obj
 0001:0000cd10       __unwindfunclet$?Create@CD_CTSoloViewer@@UAEPAXXZ$0 791edd10 f   citk_SoloViewer.obj
 0001:0000cd1f       __ehhandler$?Create@CD_CTSoloViewer@@UAEPAXXZ 791edd1f f   citk_SoloViewer.obj
 0001:0000cd30       __unwindfunclet$?Init@CTSoloViewer@@QAEXPAVCTEntity@citk@@MMM@Z$0 791edd30 f   citk_SoloViewer.obj
 0001:0000cd38       __unwindfunclet$?Init@CTSoloViewer@@QAEXPAVCTEntity@citk@@MMM@Z$4 791edd38 f   citk_SoloViewer.obj
 0001:0000cd4a       __unwindfunclet$?Init@CTSoloViewer@@QAEXPAVCTEntity@citk@@MMM@Z$5 791edd4a f   citk_SoloViewer.obj
 0001:0000cd5c       __unwindfunclet$?Init@CTSoloViewer@@QAEXPAVCTEntity@citk@@MMM@Z$1 791edd5c f   citk_SoloViewer.obj
 0001:0000cd64       __unwindfunclet$?Init@CTSoloViewer@@QAEXPAVCTEntity@citk@@MMM@Z$2 791edd64 f   citk_SoloViewer.obj
 0001:0000cd6c       __unwindfunclet$?Init@CTSoloViewer@@QAEXPAVCTEntity@citk@@MMM@Z$3 791edd6c f   citk_SoloViewer.obj
 0001:0000cd74       __ehhandler$?Init@CTSoloViewer@@QAEXPAVCTEntity@citk@@MMM@Z 791edd74 f   citk_SoloViewer.obj
 0001:0000cd80       __unwindfunclet$?New@?$StrongPtr@VCTGroup@citk@@@citk@@QAEPAVCTGroup@2@XZ$0 791edd80 f   citk_SoloViewer.obj
 0001:0000cd92       __ehhandler$?New@?$StrongPtr@VCTGroup@citk@@@citk@@QAEPAVCTGroup@2@XZ 791edd92 f   citk_SoloViewer.obj
 0001:0000cda0       __unwindfunclet$?New@?$StrongPtr@VCTLight@citk@@@citk@@QAEPAVCTLight@2@XZ$0 791edda0 f   citk_SoloViewer.obj
 0001:0000cdb2       __ehhandler$?New@?$StrongPtr@VCTLight@citk@@@citk@@QAEPAVCTLight@2@XZ 791eddb2 f   citk_SoloViewer.obj
 0001:0000cdc0       __ehhandler$??1CTToolTip@@UAE@XZ 791eddc0 f   citk_ToolTip.obj
 0001:0000cdd0       __unwindfunclet$?Create@CD_CTToolTip@@UAEPAXXZ$0 791eddd0 f   citk_ToolTip.obj
 0001:0000cdd0       __unwindfunclet$?Copy@CTToolTip@@UBEPAVCTEntity@citk@@XZ$0 791eddd0 f   citk_ToolTip.obj
 0001:0000cde2       __ehhandler$?Copy@CTToolTip@@UBEPAVCTEntity@citk@@XZ 791edde2 f   citk_ToolTip.obj
 0001:0000cde2       __ehhandler$?Create@CD_CTToolTip@@UAEPAXXZ 791edde2 f   citk_ToolTip.obj
 0001:0000cdf0       __unwindfunclet$??0CTToolTip@@QAE@XZ$0 791eddf0 f   citk_ToolTip.obj
 0001:0000cdf0       __unwindfunclet$??0CTToolTip@@QAE@PBV0@@Z$0 791eddf0 f   citk_ToolTip.obj
 0001:0000cdf8       __unwindfunclet$??0CTToolTip@@QAE@XZ$1 791eddf8 f   citk_ToolTip.obj
 0001:0000cdf8       __unwindfunclet$??0CTToolTip@@QAE@PBV0@@Z$1 791eddf8 f   citk_ToolTip.obj
 0001:0000ce06       __unwindfunclet$??0CTToolTip@@QAE@PBV0@@Z$2 791ede06 f   citk_ToolTip.obj
 0001:0000ce06       __unwindfunclet$??0CTToolTip@@QAE@XZ$2 791ede06 f   citk_ToolTip.obj
 0001:0000ce14       __unwindfunclet$??0CTToolTip@@QAE@XZ$3 791ede14 f   citk_ToolTip.obj
 0001:0000ce14       __unwindfunclet$??0CTToolTip@@QAE@PBV0@@Z$3 791ede14 f   citk_ToolTip.obj
 0001:0000ce22       __unwindfunclet$??0CTToolTip@@QAE@PBV0@@Z$4 791ede22 f   citk_ToolTip.obj
 0001:0000ce22       __unwindfunclet$??0CTToolTip@@QAE@XZ$4 791ede22 f   citk_ToolTip.obj
 0001:0000ce30       __unwindfunclet$??0CTToolTip@@QAE@PBV0@@Z$5 791ede30 f   citk_ToolTip.obj
 0001:0000ce30       __unwindfunclet$??0CTToolTip@@QAE@XZ$5 791ede30 f   citk_ToolTip.obj
 0001:0000ce3e       __ehhandler$??0CTToolTip@@QAE@XZ 791ede3e f   citk_ToolTip.obj
 0001:0000ce3e       __ehhandler$??0CTToolTip@@QAE@PBV0@@Z 791ede3e f   citk_ToolTip.obj
 0001:0000ce50       __unwindfunclet$?SetFont@CTToolTip@@QAEXPBDH@Z$0 791ede50 f   citk_ToolTip.obj
 0001:0000ce58       __ehhandler$?SetFont@CTToolTip@@QAEXPBDH@Z 791ede58 f   citk_ToolTip.obj
 0001:0000ce70       __unwindfunclet$?Process@CTToolTip@@UAEXAAUProcessInfo_t@citk@@@Z$0 791ede70 f   citk_ToolTip.obj
 0001:0000ce78       __unwindfunclet$?Process@CTToolTip@@UAEXAAUProcessInfo_t@citk@@@Z$1 791ede78 f   citk_ToolTip.obj
 0001:0000ce80       __unwindfunclet$?Process@CTToolTip@@UAEXAAUProcessInfo_t@citk@@@Z$6 791ede80 f   citk_ToolTip.obj
 0001:0000ce8f       __ehhandler$?Process@CTToolTip@@UAEXAAUProcessInfo_t@citk@@@Z 791ede8f f   citk_ToolTip.obj
 0001:0000cea0       __unwindfunclet$?CalcVolumeSmart@@YAMPAVCTVertexData@citk@@@Z$0 791edea0 f   citk_Volumes.obj
 0001:0000cea8       __unwindfunclet$?CalcVolumeSmart@@YAMPAVCTVertexData@citk@@@Z$1 791edea8 f   citk_Volumes.obj
 0001:0000ceb0       __unwindfunclet$?CalcVolumeSmart@@YAMPAVCTVertexData@citk@@@Z$2 791edeb0 f   citk_Volumes.obj
 0001:0000ceb8       __ehhandler$?CalcVolumeSmart@@YAMPAVCTVertexData@citk@@@Z 791edeb8 f   citk_Volumes.obj
 0001:0000ced0       __unwindfunclet$?CalcVolume@circle@@QAEMPBVVector3@citkTypes@@@Z$0 791eded0 f   citk_Volumes.obj
 0001:0000ced8       __ehhandler$?CalcVolume@circle@@QAEMPBVVector3@citkTypes@@@Z 791eded8 f   citk_Volumes.obj
 0001:0000cef0       __unwindfunclet$?CalcVolume@@YAMPAVCTGroup@citk@@@Z$1 791edef0 f   citk_Volumes.obj
 0001:0000cef8       __unwindfunclet$?CalcVolume@@YAMPAVCTGroup@citk@@@Z$0 791edef8 f   citk_Volumes.obj
 0001:0000cf00       __ehhandler$?CalcVolume@@YAMPAVCTGroup@citk@@@Z 791edf00 f   citk_Volumes.obj
 0001:0000cf10       __unwindfunclet$?CalcVolume@@YAMPAVCTEntity@citk@@@Z$0 791edf10 f   citk_Volumes.obj
 0001:0000cf18       __unwindfunclet$?CalcVolume@@YAMPAVCTEntity@citk@@@Z$1 791edf18 f   citk_Volumes.obj
 0001:0000cf20       __ehhandler$?CalcVolume@@YAMPAVCTEntity@citk@@@Z 791edf20 f   citk_Volumes.obj
 0001:0000cf30       __unwindfunclet$?SetEntity@IVPleh@@QAEXPAVCTEntity@citk@@@Z$0 791edf30 f   citk_Volumes.obj
 0001:0000cf38       __ehhandler$?SetEntity@IVPleh@@QAEXPAVCTEntity@citk@@@Z 791edf38 f   citk_Volumes.obj
 0001:0000cf50       __unwindfunclet$?Create@CD_IVPleh@@UAEPAXXZ$0 791edf50 f   citk_Volumes.obj
 0001:0000cf62       __ehhandler$?Create@CD_IVPleh@@UAEPAXXZ 791edf62 f   citk_Volumes.obj
 0001:0000cf70       __unwindfunclet$?Create@CD_IVTreeProcessor@@UAEPAXXZ$0 791edf70 f   citk_Volumes.obj
 0001:0000cf82       __unwindfunclet$?Create@CD_IVTreeProcessor@@UAEPAXXZ$1 791edf82 f   citk_Volumes.obj
 0001:0000cf8b       __unwindfunclet$?Create@CD_IVTreeProcessor@@UAEPAXXZ$2 791edf8b f   citk_Volumes.obj
 0001:0000cf96       __unwindfunclet$?Create@CD_IVTreeProcessor@@UAEPAXXZ$3 791edf96 f   citk_Volumes.obj
 0001:0000cfac       __unwindfunclet$?Create@CD_IVTreeProcessor@@UAEPAXXZ$4 791edfac f   citk_Volumes.obj
 0001:0000cfba       __unwindfunclet$?Create@CD_IVTreeProcessor@@UAEPAXXZ$5 791edfba f   citk_Volumes.obj
 0001:0000cfc8       __unwindfunclet$?Create@CD_IVTreeProcessor@@UAEPAXXZ$6 791edfc8 f   citk_Volumes.obj
 0001:0000cfd6       __ehhandler$?Create@CD_IVTreeProcessor@@UAEPAXXZ 791edfd6 f   citk_Volumes.obj
 0001:0000cfe0       __unwindfunclet$?AddProcessPoint@IVTreeProcessor@@UAEXPAVCTEntity@citk@@@Z$4 791edfe0 f   citk_Volumes.obj
 0001:0000cfe8       __unwindfunclet$?AddProcessPoint@IVTreeProcessor@@UAEXPAVCTEntity@citk@@@Z$0 791edfe8 f   citk_Volumes.obj
 0001:0000cff0       __unwindfunclet$?AddProcessPoint@IVTreeProcessor@@UAEXPAVCTEntity@citk@@@Z$1 791edff0 f   citk_Volumes.obj
 0001:0000cff8       __unwindfunclet$?AddProcessPoint@IVTreeProcessor@@UAEXPAVCTEntity@citk@@@Z$2 791edff8 f   citk_Volumes.obj
 0001:0000d00a       __unwindfunclet$?AddProcessPoint@IVTreeProcessor@@UAEXPAVCTEntity@citk@@@Z$3 791ee00a f   citk_Volumes.obj
 0001:0000d012       __ehhandler$?AddProcessPoint@IVTreeProcessor@@UAEXPAVCTEntity@citk@@@Z 791ee012 f   citk_Volumes.obj
 0001:0000d020       ??__F__citk_plugin@@YAXXZ  791ee020 f   citkUtils.obj
 0001:0000d030       ??__F?MeasPool@DAxisTracker@@0V?$DMemoryPool@Umeas_t@DAxisTracker@@@citkTypes@@A@@YAXXZ 791ee030 f   citk_AxisTracker.obj
 0001:0000d090       ??__F?SharedTimer@DProfiler@citk@@0V?$SafePtr@VCTTimer@citk@@@2@A@@YAXXZ 791ee090 f   citk_Profiler.obj
 0001:0000d0f0       ??__F?msgs@DProfiler@citk@@0V?$ArrayVal@VString@citkTypes@@$0A@@citkTypes@@A@@YAXXZ 791ee0f0 f   citk_Profiler.obj
 0001:0000d100       ??__F?All@CTAbstractMaterial@@0V?$ArrayPtr@VCTAbstractMaterial@@@citkTypes@@A@@YAXXZ 791ee100 f   citk_AbstractMaterials.obj
 0001:0000d110       ??__F?WorldPivotRS@CTObjectBlinker@@0V?$StrongPtr@VCTRenderState@citk@@@citk@@A@@YAXXZ 791ee110 f   citk_Blinker.obj
 0001:0000d150       ??__F?TransPivotRS@CTObjectBlinker@@0V?$StrongPtr@VCTRenderState@citk@@@citk@@A@@YAXXZ 791ee150 f   citk_Blinker.obj
 0001:0000d190       ??__F?WorldPivotVD@CTObjectBlinker@@0V?$StrongPtr@VCTVertexData@citk@@@citk@@A@@YAXXZ 791ee190 f   citk_Blinker.obj
 0001:0000d1d0       ??__F?TransPivotVD@CTObjectBlinker@@0V?$StrongPtr@VCTVertexData@citk@@@citk@@A@@YAXXZ 791ee1d0 f   citk_Blinker.obj
 0001:0000d210       ??__Fstek@?1??Process@IVPleh@@UAEXAAUProcessInfo_t@citk@@@Z@YAXXZ 791ee210 f   citk_Volumes.obj
 0002:000006e4       ?__citk_plugin$initializer$@@3P6AXXZA 791ef6e4     citkUtils.obj
 0002:000006e8       ?_CD_citkUtils$initializer$@@3P6AXXZA 791ef6e8     citkUtils.obj
 0002:000006ec       ??MeasPool$initializer$@DAxisTracker@@0P6AXXZA@@3P6AXXZA 791ef6ec     citk_AxisTracker.obj
 0002:000006f0       ?_CD_CTNoiseTexture$initializer$@@3P6AXXZA 791ef6f0     citk_NoiseTexture.obj
 0002:000006f4       ?_CD_CTPIDController$initializer$@@3P6AXXZA 791ef6f4     citk_PIDController.obj
 0002:000006f8       ??SharedTimer$initializer$@DProfiler@citk@@0P6AXXZA@@3P6AXXZA 791ef6f8     citk_Profiler.obj
 0002:000006fc       ??msgs$initializer$@DProfiler@citk@@0P6AXXZA@@3P6AXXZA 791ef6fc     citk_Profiler.obj
 0002:00000700       ?_CD_CT2DFace$initializer$@@3P6AXXZA 791ef700     citk_2DFace.obj
 0002:00000704       ?_CD_CTAbstractMaterial$initializer$@@3P6AXXZA 791ef704     citk_AbstractMaterials.obj
 0002:00000708       ??All$initializer$@CTAbstractMaterial@@0P6AXXZA@@3P6AXXZA 791ef708     citk_AbstractMaterials.obj
 0002:0000070c       ?_CD_CTObjectBlinker$initializer$@@3P6AXXZA 791ef70c     citk_Blinker.obj
 0002:00000710       ?_CD_CTObjectBlinkerED$initializer$@@3P6AXXZA 791ef710     citk_Blinker.obj
 0002:00000714       ??WorldPivotRS$initializer$@CTObjectBlinker@@0P6AXXZA@@3P6AXXZA 791ef714     citk_Blinker.obj
 0002:00000718       ??TransPivotRS$initializer$@CTObjectBlinker@@0P6AXXZA@@3P6AXXZA 791ef718     citk_Blinker.obj
 0002:0000071c       ??WorldPivotVD$initializer$@CTObjectBlinker@@0P6AXXZA@@3P6AXXZA 791ef71c     citk_Blinker.obj
 0002:00000720       ??TransPivotVD$initializer$@CTObjectBlinker@@0P6AXXZA@@3P6AXXZA 791ef720     citk_Blinker.obj
 0002:00000724       ?_CD_CTMessageHud$initializer$@@3P6AXXZA 791ef724     citk_MessageHud.obj
 0002:00000728       ?_CD_CTSoloViewer$initializer$@@3P6AXXZA 791ef728     citk_SoloViewer.obj
 0002:0000072c       ?_CD_CTToolTip$initializer$@@3P6AXXZA 791ef72c     citk_ToolTip.obj
 0002:00000730       ?_CD_IVPleh$initializer$@@3P6AXXZA 791ef730     citk_Volumes.obj
 0002:00000734       ?_CD_IVTreeProcessor$initializer$@@3P6AXXZA 791ef734     citk_Volumes.obj
 0002:00000740       ?__scrt_initialize_tss_var@@3P6AHXZA 791ef740     MSVCRT:thread_safe_statics.obj
 0002:00000880       _GS_ExceptionPointers      791ef880     MSVCRT:gs_report.obj
 0002:00000a88       ?vssRevision@@3QBDB        791efa88     citk_NoiseTexture.obj
 0002:00000aa0       ?vssRevision@@3QBDB        791efaa0     citk_PIDController.obj
 0002:00000ab8       ?vssRevision@@3QBDB        791efab8     citk_2DFace.obj
 0002:00000ad0       ?vssRevision@@3QBDB        791efad0     citk_AbstractMaterials.obj
 0002:00000aec       ?vssRevision@@3QBDB        791efaec     citk_Blinker.obj
 0002:00000b04       ?vssRevision@@3QBDB        791efb04     citk_MessageHud.obj
 0002:00000b1c       ?vssRevision@@3QBDB        791efb1c     citk_SoloViewer.obj
 0002:00000b34       ?vssRevision@@3QBDB        791efb34     citk_ToolTip.obj
 0002:00000b4c       ?vssRevision@@3QBDB        791efb4c     citk_Volumes.obj
 0002:00003848       __unwindtable$??__E__citk_plugin@@YAXXZ 791f2848     citkUtils.obj
 0002:00003850       __ehfuncinfo$??__E__citk_plugin@@YAXXZ 791f2850     citkUtils.obj
 0002:00003874       __ehfuncinfo$??1?$StrongPtr@VCTAbstractMaterial@@@citk@@QAE@XZ 791f2874     citk_AbstractMaterials.obj
 0002:00003874       __ehfuncinfo$??1?$StrongPtr@VCTMaterialProperty@citk@@@citk@@QAE@XZ 791f2874     citk_AbstractMaterials.obj
 0002:00003874       __ehfuncinfo$??1?$StrongPtr@VCTGroup@citk@@@citk@@QAE@XZ 791f2874     citk_Blinker.obj
 0002:00003874       __ehfuncinfo$??1?$StrongPtr@VCTRenderState@citk@@@citk@@QAE@XZ 791f2874     citk_AbstractMaterials.obj
 0002:00003874       __ehfuncinfo$??1DAxisTracker@@QAE@XZ 791f2874     citk_AxisTracker.obj
 0002:00003874       __ehfuncinfo$??1?$StrongArray@VCT3DText@citk@@@citk@@QAE@XZ 791f2874     citk_MessageHud.obj
 0002:00003874       __ehfuncinfo$??_ECT2DFace@@UAEPAXI@Z 791f2874     citk_2DFace.obj
 0002:00003874       __ehfuncinfo$??_ECTMessageHud@@EAEPAXI@Z 791f2874     citk_MessageHud.obj
 0002:00003874       __ehfuncinfo$??1?$StrongPtr@VCTShape@citk@@@citk@@QAE@XZ 791f2874     citk_SoloViewer.obj
 0002:00003874       __ehfuncinfo$??1?$StrongPtr@VCTEntity@citk@@@citk@@QAE@XZ 791f2874     citk_SoloViewer.obj
 0002:00003874       __ehfuncinfo$??1?$StrongPtr@VCTLight@citk@@@citk@@QAE@XZ 791f2874     citk_SoloViewer.obj
 0002:00003874       __ehfuncinfo$??_ECTPIDController@citk@@UAEPAXI@Z 791f2874     citk_PIDController.obj
 0002:00003874       __ehfuncinfo$??_ECTSoloViewer@@UAEPAXI@Z 791f2874     citk_SoloViewer.obj
 0002:00003874       __ehfuncinfo$??1?$StrongPtr@VCTTextureProperty@citk@@@citk@@QAE@XZ 791f2874     citk_ToolTip.obj
 0002:00003874       __ehfuncinfo$??1?$StrongPtr@VCT3DText@citk@@@citk@@QAE@XZ 791f2874     citk_MessageHud.obj
 0002:00003874       __ehfuncinfo$??1?$StrongPtr@VCTAlphaProperty@citk@@@citk@@QAE@XZ 791f2874     citk_2DFace.obj
 0002:00003874       __ehfuncinfo$??1?$StrongPtr@VCTRenderFlagsProperty@citk@@@citk@@QAE@XZ 791f2874     citk_2DFace.obj
 0002:00003874       __ehfuncinfo$??1?$StrongPtr@VCTBitmapImport@citk@@@citk@@QAE@XZ 791f2874     citk_ToolTip.obj
 0002:00003874       __ehfuncinfo$??_ECTToolTip@@UAEPAXI@Z 791f2874     citk_ToolTip.obj
 0002:00003874       __ehfuncinfo$??1?$SafeArray@VCTEntity@citk@@@citk@@UAE@XZ 791f2874     citk_Volumes.obj
 0002:00003874       __ehfuncinfo$??1?$SafeArray@VCTGroup@citk@@@citk@@UAE@XZ 791f2874     citk_Volumes.obj
 0002:00003874       __ehfuncinfo$??1?$SafePtr@VCTEntity@citk@@@citk@@UAE@XZ 791f2874     citk_2DFace.obj
 0002:00003874       __ehfuncinfo$??1?$StrongPtr@VCTTexture@citk@@@citk@@QAE@XZ 791f2874     citk_Snapper.obj
 0002:00003874       __ehfuncinfo$??1?$StrongPtr@VCTVertexData@citk@@@citk@@QAE@XZ 791f2874     citk_2DFace.obj
 0002:00003874       __ehfuncinfo$??1IVPleh@@UAE@XZ 791f2874     citk_Volumes.obj
 0002:00003874       __ehfuncinfo$??_ECTObjectBlinkerED@@UAEPAXI@Z 791f2874     citk_Blinker.obj
 0002:00003874       __ehfuncinfo$??1?$StrongPtr@VCTObjectBlinkerED@@@citk@@QAE@XZ 791f2874     citk_Blinker.obj
 0002:00003874       __ehfuncinfo$??1?$StrongPtr@VCTBitmapExport@citk@@@citk@@QAE@XZ 791f2874     citk_Snapper.obj
 0002:00003874       __ehfuncinfo$??1?$SafePtr@VCTRenderTarget@citk@@@citk@@UAE@XZ 791f2874     citk_Snapper.obj
 0002:00003874       __ehfuncinfo$??1?$StrongPtr@VIVPleh@@@citk@@QAE@XZ 791f2874     citk_Volumes.obj
 0002:00003874       __ehfuncinfo$??_ECTAbstractMaterial@@MAEPAXI@Z 791f2874     citk_AbstractMaterials.obj
 0002:00003874       __ehfuncinfo$??1?$StrongPtr@VCTWireFrameProperty@citk@@@citk@@QAE@XZ 791f2874     citk_Blinker.obj
 0002:00003874       __ehfuncinfo$??1?$StrongPtr@VCTBox@citk@@@citk@@QAE@XZ 791f2874     citk_Blinker.obj
 0002:00003874       __ehfuncinfo$??1?$StrongPtr@VCTGeometry@citk@@@citk@@QAE@XZ 791f2874     citk_Blinker.obj
 0002:00003898       __unwindtable$?Create@CD_CTNoiseTexture@@UAEPAXXZ 791f2898     citk_NoiseTexture.obj
 0002:000038a0       __ehfuncinfo$?Create@CD_CTNoiseTexture@@UAEPAXXZ 791f28a0     citk_NoiseTexture.obj
 0002:000038c4       __unwindtable$?DoImport@CTNoiseTexture@@MAE_NPBD@Z 791f28c4     citk_NoiseTexture.obj
 0002:000038d4       __ehfuncinfo$?DoImport@CTNoiseTexture@@MAE_NPBD@Z 791f28d4     citk_NoiseTexture.obj
 0002:000038f8       __unwindtable$?Create@CD_CTPIDController@@UAEPAXXZ 791f28f8     citk_PIDController.obj
 0002:00003900       __ehfuncinfo$?Create@CD_CTPIDController@@UAEPAXXZ 791f2900     citk_PIDController.obj
 0002:00003924       __unwindtable$??__F?TransPivotVD@CTObjectBlinker@@0V?$StrongPtr@VCTVertexData@citk@@@citk@@A@@YAXXZ 791f2924     citk_Blinker.obj
 0002:00003924       __unwindtable$??__F?WorldPivotVD@CTObjectBlinker@@0V?$StrongPtr@VCTVertexData@citk@@@citk@@A@@YAXXZ 791f2924     citk_Blinker.obj
 0002:00003924       __unwindtable$??__F?TransPivotRS@CTObjectBlinker@@0V?$StrongPtr@VCTRenderState@citk@@@citk@@A@@YAXXZ 791f2924     citk_Blinker.obj
 0002:00003924       __unwindtable$??__F?SharedTimer@DProfiler@citk@@0V?$SafePtr@VCTTimer@citk@@@2@A@@YAXXZ 791f2924     citk_Profiler.obj
 0002:00003924       __unwindtable$?Animate@CTMessageHud@@AAAXJ@Z 791f2924     citk_MessageHud.obj
 0002:00003924       __unwindtable$??__F?WorldPivotRS@CTObjectBlinker@@0V?$StrongPtr@VCTRenderState@citk@@@citk@@A@@YAXXZ 791f2924     citk_Blinker.obj
 0002:0000392c       __ehfuncinfo$??__F?WorldPivotRS@CTObjectBlinker@@0V?$StrongPtr@VCTRenderState@citk@@@citk@@A@@YAXXZ 791f292c     citk_Blinker.obj
 0002:0000392c       __ehfuncinfo$??__F?TransPivotRS@CTObjectBlinker@@0V?$StrongPtr@VCTRenderState@citk@@@citk@@A@@YAXXZ 791f292c     citk_Blinker.obj
 0002:0000392c       __ehfuncinfo$??__F?TransPivotVD@CTObjectBlinker@@0V?$StrongPtr@VCTVertexData@citk@@@citk@@A@@YAXXZ 791f292c     citk_Blinker.obj
 0002:0000392c       __ehfuncinfo$?Animate@CTMessageHud@@AAAXJ@Z 791f292c     citk_MessageHud.obj
 0002:0000392c       __ehfuncinfo$??__F?WorldPivotVD@CTObjectBlinker@@0V?$StrongPtr@VCTVertexData@citk@@@citk@@A@@YAXXZ 791f292c     citk_Blinker.obj
 0002:0000392c       __ehfuncinfo$??__F?SharedTimer@DProfiler@citk@@0V?$SafePtr@VCTTimer@citk@@@2@A@@YAXXZ 791f292c     citk_Profiler.obj
 0002:00003950       __unwindtable$??0DProfiler@citk@@QAE@PBD@Z 791f2950     citk_Profiler.obj
 0002:00003960       __ehfuncinfo$??0DProfiler@citk@@QAE@PBD@Z 791f2960     citk_Profiler.obj
 0002:00003984       __unwindtable$??1DProfiler@citk@@QAE@XZ 791f2984     citk_Profiler.obj
 0002:00003994       __ehfuncinfo$??1DProfiler@citk@@QAE@XZ 791f2994     citk_Profiler.obj
 0002:000039b8       __unwindtable$??1CTMessageHud@@EAE@XZ 791f29b8     citk_MessageHud.obj
 0002:000039b8       __unwindtable$??_G?$SafePtr@VCTEntity@citk@@@citk@@UAEPAXI@Z 791f29b8     citk_2DFace.obj
 0002:000039b8       __unwindtable$??1?$DevicePtr@VCTTimer@citk@@$00@citk@@QAE@XZ 791f29b8     citk_Profiler.obj
 0002:000039b8       __unwindtable$??_EIVPleh@@UAEPAXI@Z 791f29b8     citk_Volumes.obj
 0002:000039b8       __unwindtable$??_G?$SafePtr@VCTTimer@citk@@@citk@@UAEPAXI@Z 791f29b8     citk_Profiler.obj
 0002:000039b8       __unwindtable$??1?$ServicePtr@VCTEngineManager@citk@@@citk@@QAE@XZ 791f29b8     citk_Snapper.obj
 0002:000039b8       __unwindtable$??_G?$SafePtr@VCTRenderTarget@citk@@@citk@@UAEPAXI@Z 791f29b8     citk_Snapper.obj
 0002:000039c0       __ehfuncinfo$??1CTMessageHud@@EAE@XZ 791f29c0     citk_MessageHud.obj
 0002:000039c0       __ehfuncinfo$??1?$ServicePtr@VCTEngineManager@citk@@@citk@@QAE@XZ 791f29c0     citk_Snapper.obj
 0002:000039c0       __ehfuncinfo$??_G?$SafePtr@VCTTimer@citk@@@citk@@UAEPAXI@Z 791f29c0     citk_Profiler.obj
 0002:000039c0       __ehfuncinfo$??_G?$SafePtr@VCTRenderTarget@citk@@@citk@@UAEPAXI@Z 791f29c0     citk_Snapper.obj
 0002:000039c0       __ehfuncinfo$??1?$DevicePtr@VCTTimer@citk@@$00@citk@@QAE@XZ 791f29c0     citk_Profiler.obj
 0002:000039c0       __ehfuncinfo$??_G?$SafePtr@VCTEntity@citk@@@citk@@UAEPAXI@Z 791f29c0     citk_2DFace.obj
 0002:000039c0       __ehfuncinfo$??_EIVPleh@@UAEPAXI@Z 791f29c0     citk_Volumes.obj
 0002:000039e4       __unwindtable$??0DSnapper@@QAE@ABV0@@Z 791f29e4     citk_Snapper.obj
 0002:000039fc       __ehfuncinfo$??0DSnapper@@QAE@ABV0@@Z 791f29fc     citk_Snapper.obj
 0002:00003a20       __unwindtable$??0DSnapper@@QAE@PBD@Z 791f2a20     citk_Snapper.obj
 0002:00003a40       __ehfuncinfo$??0DSnapper@@QAE@PBD@Z 791f2a40     citk_Snapper.obj
 0002:00003a64       __unwindtable$?Init@DSnapper@@QAEXPBDPAVCTRenderTarget@citk@@M@Z 791f2a64     citk_Snapper.obj
 0002:00003a74       __ehfuncinfo$?Init@DSnapper@@QAEXPBDPAVCTRenderTarget@citk@@M@Z 791f2a74     citk_Snapper.obj
 0002:00003a98       __unwindtable$??1DSnapper@@QAE@XZ 791f2a98     citk_Snapper.obj
 0002:00003a98       __unwindtable$??1CT2DFace@@UAE@XZ 791f2a98     citk_2DFace.obj
 0002:00003a98       __unwindtable$??1CTSoloViewer@@UAE@XZ 791f2a98     citk_SoloViewer.obj
 0002:00003ab8       __ehfuncinfo$??1CTSoloViewer@@UAE@XZ 791f2ab8     citk_SoloViewer.obj
 0002:00003ab8       __ehfuncinfo$??1CT2DFace@@UAE@XZ 791f2ab8     citk_2DFace.obj
 0002:00003ab8       __ehfuncinfo$??1DSnapper@@QAE@XZ 791f2ab8     citk_Snapper.obj
 0002:00003adc       __unwindtable$?New@?$StrongPtr@VCTGeometry@citk@@@citk@@QAEPAVCTGeometry@2@XZ 791f2adc     citk_Blinker.obj
 0002:00003adc       __unwindtable$?New@?$StrongPtr@VCTTexture@citk@@@citk@@QAEPAVCTTexture@2@XZ 791f2adc     citk_Snapper.obj
 0002:00003ae4       __ehfuncinfo$?New@?$StrongPtr@VCTGeometry@citk@@@citk@@QAEPAVCTGeometry@2@XZ 791f2ae4     citk_Blinker.obj
 0002:00003ae4       __ehfuncinfo$?New@?$StrongPtr@VCTTexture@citk@@@citk@@QAEPAVCTTexture@2@XZ 791f2ae4     citk_Snapper.obj
 0002:00003b08       __unwindtable$?Create@CD_CT2DFace@@UAEPAXXZ 791f2b08     citk_2DFace.obj
 0002:00003b08       __unwindtable$?Copy@CT2DFace@@UBEPAVCTEntity@citk@@XZ 791f2b08     citk_2DFace.obj
 0002:00003b10       __ehfuncinfo$?Create@CD_CT2DFace@@UAEPAXXZ 791f2b10     citk_2DFace.obj
 0002:00003b10       __ehfuncinfo$?Copy@CT2DFace@@UBEPAVCTEntity@citk@@XZ 791f2b10     citk_2DFace.obj
 0002:00003b34       __ehfuncinfo$??0CT2DFace@@QAE@XZ 791f2b34     citk_2DFace.obj
 0002:00003b58       __unwindtable$??0CT2DFace@@QAE@XZ 791f2b58     citk_2DFace.obj
 0002:00003b98       __ehfuncinfo$??0CT2DFace@@QAE@PBV0@@Z 791f2b98     citk_2DFace.obj
 0002:00003bbc       __unwindtable$??0CT2DFace@@QAE@PBV0@@Z 791f2bbc     citk_2DFace.obj
 0002:00003be4       __unwindtable$?New@?$StrongPtr@VCTRenderState@citk@@@citk@@QAEPAVCTRenderState@2@XZ 791f2be4     citk_2DFace.obj
 0002:00003be4       __unwindtable$?New@?$StrongPtr@VCTMaterialProperty@citk@@@citk@@QAEPAVCTMaterialProperty@2@XZ 791f2be4     citk_AbstractMaterials.obj
 0002:00003bec       __ehfuncinfo$?New@?$StrongPtr@VCTMaterialProperty@citk@@@citk@@QAEPAVCTMaterialProperty@2@XZ 791f2bec     citk_AbstractMaterials.obj
 0002:00003bec       __ehfuncinfo$?New@?$StrongPtr@VCTRenderState@citk@@@citk@@QAEPAVCTRenderState@2@XZ 791f2bec     citk_2DFace.obj
 0002:00003c10       __unwindtable$?New@?$StrongPtr@VCTVertexData@citk@@@citk@@QAEPAVCTVertexData@2@XZ 791f2c10     citk_2DFace.obj
 0002:00003c18       __ehfuncinfo$?New@?$StrongPtr@VCTVertexData@citk@@@citk@@QAEPAVCTVertexData@2@XZ 791f2c18     citk_2DFace.obj
 0002:00003c3c       __unwindtable$?Create@CD_CTObjectBlinkerED@@UAEPAXXZ 791f2c3c     citk_Blinker.obj
 0002:00003c3c       __unwindtable$?Create@CD_CTAbstractMaterial@@UAEPAXXZ 791f2c3c     citk_AbstractMaterials.obj
 0002:00003c44       __ehfuncinfo$?Create@CD_CTAbstractMaterial@@UAEPAXXZ 791f2c44     citk_AbstractMaterials.obj
 0002:00003c44       __ehfuncinfo$?Create@CD_CTObjectBlinkerED@@UAEPAXXZ 791f2c44     citk_Blinker.obj
 0002:00003c68       __unwindtable$??0CTAbstractMaterial@@QAE@XZ 791f2c68     citk_AbstractMaterials.obj
 0002:00003c80       __ehfuncinfo$??0CTAbstractMaterial@@QAE@XZ 791f2c80     citk_AbstractMaterials.obj
 0002:00003ca4       __unwindtable$??1CTObjectBlinker@@MAE@XZ 791f2ca4     citk_Blinker.obj
 0002:00003ca4       __unwindtable$??1CTAbstractMaterial@@MAE@XZ 791f2ca4     citk_AbstractMaterials.obj
 0002:00003cb4       __ehfuncinfo$??1CTAbstractMaterial@@MAE@XZ 791f2cb4     citk_AbstractMaterials.obj
 0002:00003cb4       __ehfuncinfo$??1CTObjectBlinker@@MAE@XZ 791f2cb4     citk_Blinker.obj
 0002:00003cd8       __ehfuncinfo$?CreateFor@CTAbstractMaterial@@SAPAV1@PAVCTEntity@citk@@ABUDColor@citkTypes@@@Z 791f2cd8     citk_AbstractMaterials.obj
 0002:00003cfc       __unwindtable$?CreateFor@CTAbstractMaterial@@SAPAV1@PAVCTEntity@citk@@ABUDColor@citkTypes@@@Z 791f2cfc     citk_AbstractMaterials.obj
 0002:00003d2c       __unwindtable$?Abstract@CTAbstractMaterial@@SAXPAVCTEntity@citk@@@Z 791f2d2c     citk_AbstractMaterials.obj
 0002:00003d2c       __unwindtable$?Orig@CTAbstractMaterial@@SAXPAVCTEntity@citk@@@Z 791f2d2c     citk_AbstractMaterials.obj
 0002:00003d44       __ehfuncinfo$?Abstract@CTAbstractMaterial@@SAXPAVCTEntity@citk@@@Z 791f2d44     citk_AbstractMaterials.obj
 0002:00003d44       __ehfuncinfo$?Orig@CTAbstractMaterial@@SAXPAVCTEntity@citk@@@Z 791f2d44     citk_AbstractMaterials.obj
 0002:00003d68       __unwindtable$??_GIVTreeProcessor@@UAEPAXI@Z 791f2d68     citk_Volumes.obj
 0002:00003d68       __unwindtable$??_ECTObjectBlinker@@MAEPAXI@Z 791f2d68     citk_Blinker.obj
 0002:00003d80       __ehfuncinfo$??_ECTObjectBlinker@@MAEPAXI@Z 791f2d80     citk_Blinker.obj
 0002:00003d80       __ehfuncinfo$??_GIVTreeProcessor@@UAEPAXI@Z 791f2d80     citk_Volumes.obj
 0002:00003da4       __unwindtable$?Create@CD_CTObjectBlinker@@UAEPAXXZ 791f2da4     citk_Blinker.obj
 0002:00003dac       __ehfuncinfo$?Create@CD_CTObjectBlinker@@UAEPAXXZ 791f2dac     citk_Blinker.obj
 0002:00003dd0       __ehfuncinfo$??0CTObjectBlinker@@QAE@XZ 791f2dd0     citk_Blinker.obj
 0002:00003df4       __unwindtable$??0CTObjectBlinker@@QAE@XZ 791f2df4     citk_Blinker.obj
 0002:00003e3c       __ehfuncinfo$?CreatePivot@CTObjectBlinker@@CAXXZ 791f2e3c     citk_Blinker.obj
 0002:00003e60       __unwindtable$?CreatePivot@CTObjectBlinker@@CAXXZ 791f2e60     citk_Blinker.obj
 0002:00003ec8       __ehfuncinfo$?Clear@CTObjectBlinker@@QAEXXZ 791f2ec8     citk_Blinker.obj
 0002:00003eec       __unwindtable$?Clear@CTObjectBlinker@@QAEXXZ 791f2eec     citk_Blinker.obj
 0002:00003f1c       __unwindtable$?GetBlinker@CTObjectBlinker@@SAPAV1@PAVCTEntity@citk@@@Z 791f2f1c     citk_Blinker.obj
 0002:00003f34       __ehfuncinfo$?GetBlinker@CTObjectBlinker@@SAPAV1@PAVCTEntity@citk@@@Z 791f2f34     citk_Blinker.obj
 0002:00003f58       __ehfuncinfo$?OnDelete@CTObjectBlinker@@UAEXPAVCTAggregated@citk@@@Z 791f2f58     citk_Blinker.obj
 0002:00003f7c       __unwindtable$?OnDelete@CTObjectBlinker@@UAEXPAVCTAggregated@citk@@@Z 791f2f7c     citk_Blinker.obj
 0002:00003fac       __ehfuncinfo$?SetObject@CTObjectBlinker@@QAE_NPAVCTEntity@citk@@ABUDColor@citkTypes@@_N2@Z 791f2fac     citk_Blinker.obj
 0002:00003fd0       __unwindtable$?SetObject@CTObjectBlinker@@QAE_NPAVCTEntity@citk@@ABUDColor@citkTypes@@_N2@Z 791f2fd0     citk_Blinker.obj
 0002:00003ff8       __unwindtable$?AddActualBlinker@CTObjectBlinker@@AAEXPAVCTEntity@citk@@_N1@Z 791f2ff8     citk_Blinker.obj
 0002:00004018       __ehfuncinfo$?AddActualBlinker@CTObjectBlinker@@AAEXPAVCTEntity@citk@@_N1@Z 791f3018     citk_Blinker.obj
 0002:0000403c       __unwindtable$?Create@CD_CTMessageHud@@UAEPAXXZ 791f303c     citk_MessageHud.obj
 0002:00004044       __ehfuncinfo$?Create@CD_CTMessageHud@@UAEPAXXZ 791f3044     citk_MessageHud.obj
 0002:00004068       __unwindtable$?_AddLine@CTMessageHud@@AAEXPBDABUDColor@citkTypes@@@Z 791f3068     citk_MessageHud.obj
 0002:00004078       __ehfuncinfo$?_AddLine@CTMessageHud@@AAEXPBDABUDColor@citkTypes@@@Z 791f3078     citk_MessageHud.obj
 0002:0000409c       __unwindtable$?GetText@CTMessageHud@@AAEPAVCT3DText@citk@@XZ 791f309c     citk_MessageHud.obj
 0002:000040b4       __ehfuncinfo$?GetText@CTMessageHud@@AAEPAVCT3DText@citk@@XZ 791f30b4     citk_MessageHud.obj
 0002:000040d8       __unwindtable$?Create@CD_CTSoloViewer@@UAEPAXXZ 791f30d8     citk_SoloViewer.obj
 0002:000040e0       __ehfuncinfo$?Create@CD_CTSoloViewer@@UAEPAXXZ 791f30e0     citk_SoloViewer.obj
 0002:00004104       __ehfuncinfo$?Init@CTSoloViewer@@QAEXPAVCTEntity@citk@@MMM@Z 791f3104     citk_SoloViewer.obj
 0002:00004128       __unwindtable$?Init@CTSoloViewer@@QAEXPAVCTEntity@citk@@MMM@Z 791f3128     citk_SoloViewer.obj
 0002:00004178       __unwindtable$?New@?$StrongPtr@VCTGroup@citk@@@citk@@QAEPAVCTGroup@2@XZ 791f3178     citk_SoloViewer.obj
 0002:00004180       __ehfuncinfo$?New@?$StrongPtr@VCTGroup@citk@@@citk@@QAEPAVCTGroup@2@XZ 791f3180     citk_SoloViewer.obj
 0002:000041a4       __unwindtable$?New@?$StrongPtr@VCTLight@citk@@@citk@@QAEPAVCTLight@2@XZ 791f31a4     citk_SoloViewer.obj
 0002:000041ac       __ehfuncinfo$?New@?$StrongPtr@VCTLight@citk@@@citk@@QAEPAVCTLight@2@XZ 791f31ac     citk_SoloViewer.obj
 0002:000041d0       __unwindtable$??1CTToolTip@@UAE@XZ 791f31d0     citk_ToolTip.obj
 0002:000041e8       __ehfuncinfo$??1CTToolTip@@UAE@XZ 791f31e8     citk_ToolTip.obj
 0002:0000420c       __unwindtable$?Copy@CTToolTip@@UBEPAVCTEntity@citk@@XZ 791f320c     citk_ToolTip.obj
 0002:0000420c       __unwindtable$?Create@CD_CTToolTip@@UAEPAXXZ 791f320c     citk_ToolTip.obj
 0002:00004214       __ehfuncinfo$?Copy@CTToolTip@@UBEPAVCTEntity@citk@@XZ 791f3214     citk_ToolTip.obj
 0002:00004214       __ehfuncinfo$?Create@CD_CTToolTip@@UAEPAXXZ 791f3214     citk_ToolTip.obj
 0002:00004238       __ehfuncinfo$??0CTToolTip@@QAE@PBV0@@Z 791f3238     citk_ToolTip.obj
 0002:00004238       __ehfuncinfo$??0CTToolTip@@QAE@XZ 791f3238     citk_ToolTip.obj
 0002:0000425c       __unwindtable$??0CTToolTip@@QAE@XZ 791f325c     citk_ToolTip.obj
 0002:0000425c       __unwindtable$??0CTToolTip@@QAE@PBV0@@Z 791f325c     citk_ToolTip.obj
 0002:0000428c       __unwindtable$?SetFont@CTToolTip@@QAEXPBDH@Z 791f328c     citk_ToolTip.obj
 0002:00004294       __ehfuncinfo$?SetFont@CTToolTip@@QAEXPBDH@Z 791f3294     citk_ToolTip.obj
 0002:000042b8       __ehfuncinfo$?Process@CTToolTip@@UAEXAAUProcessInfo_t@citk@@@Z 791f32b8     citk_ToolTip.obj
 0002:000042dc       __unwindtable$?Process@CTToolTip@@UAEXAAUProcessInfo_t@citk@@@Z 791f32dc     citk_ToolTip.obj
 0002:0000430c       __unwindtable$?CalcVolumeSmart@@YAMPAVCTVertexData@citk@@@Z 791f330c     citk_Volumes.obj
 0002:00004324       __ehfuncinfo$?CalcVolumeSmart@@YAMPAVCTVertexData@citk@@@Z 791f3324     citk_Volumes.obj
 0002:00004348       __unwindtable$?CalcVolume@circle@@QAEMPBVVector3@citkTypes@@@Z 791f3348     citk_Volumes.obj
 0002:00004350       __ehfuncinfo$?CalcVolume@circle@@QAEMPBVVector3@citkTypes@@@Z 791f3350     citk_Volumes.obj
 0002:00004374       __unwindtable$?CalcVolume@@YAMPAVCTGroup@citk@@@Z 791f3374     citk_Volumes.obj
 0002:00004384       __ehfuncinfo$?CalcVolume@@YAMPAVCTGroup@citk@@@Z 791f3384     citk_Volumes.obj
 0002:000043a8       __ehfuncinfo$?CalcVolume@@YAMPAVCTEntity@citk@@@Z 791f33a8     citk_Volumes.obj
 0002:000043cc       __unwindtable$?CalcVolume@@YAMPAVCTEntity@citk@@@Z 791f33cc     citk_Volumes.obj
 0002:00004404       __unwindtable$?SetEntity@IVPleh@@QAEXPAVCTEntity@citk@@@Z 791f3404     citk_Volumes.obj
 0002:00004414       __ehfuncinfo$?SetEntity@IVPleh@@QAEXPAVCTEntity@citk@@@Z 791f3414     citk_Volumes.obj
 0002:00004438       __unwindtable$?Create@CD_IVPleh@@UAEPAXXZ 791f3438     citk_Volumes.obj
 0002:00004440       __ehfuncinfo$?Create@CD_IVPleh@@UAEPAXXZ 791f3440     citk_Volumes.obj
 0002:00004464       __ehfuncinfo$?Create@CD_IVTreeProcessor@@UAEPAXXZ 791f3464     citk_Volumes.obj
 0002:00004488       __unwindtable$?Create@CD_IVTreeProcessor@@UAEPAXXZ 791f3488     citk_Volumes.obj
 0002:000044c0       __ehfuncinfo$?AddProcessPoint@IVTreeProcessor@@UAEXPAVCTEntity@citk@@@Z 791f34c0     citk_Volumes.obj
 0002:000044e4       __unwindtable$?AddProcessPoint@IVTreeProcessor@@UAEXPAVCTEntity@citk@@@Z 791f34e4     citk_Volumes.obj
 0002:00004538       __sehtable$___scrt_is_nonwritable_in_current_image 791f3538     MSVCRT:utility.obj
 0002:00004558       __sehtable$??_M@YGXPAXIIP6EX0@Z@Z 791f3558     MSVCRT:ehvecdtr.obj
 0002:00004578       __sehtable$?__ArrayUnwind@@YGXPAXIIP6EX0@Z@Z 791f3578     MSVCRT:ehvecdtr.obj
 0002:00004598       __sehtable$??_L@YGXPAXIIP6EX0@Z1@Z 791f3598     MSVCRT:ehvecctr.obj
 0002:000045b8       __sehtable$?dllmain_crt_process_attach@@YAHQAUHINSTANCE__@@QAX@Z 791f35b8     MSVCRT:dll_dllmain.obj
 0002:000045d8       __sehtable$?dllmain_crt_process_detach@@YAH_N@Z 791f35d8     MSVCRT:dll_dllmain.obj
 0002:000045f8       __sehtable$?dllmain_dispatch@@YAHQAUHINSTANCE__@@KQAX@Z 791f35f8     MSVCRT:dll_dllmain.obj
 0002:000046b0       .edata                     791f36b0     citkUtils.exp
 0002:000046d8       rgpv                       791f36d8     citkUtils.exp
 0002:0000496c       rgszName                   791f396c     citkUtils.exp
 0002:00004c00       rgwOrd                     791f3c00     citkUtils.exp
 0002:00004d4a       szName                     791f3d4a     citkUtils.exp
 0002:00004d59       $N00001                    791f3d59     citkUtils.exp
 0002:00004d72       $N00002                    791f3d72     citkUtils.exp
 0002:00004d86       $N00003                    791f3d86     citkUtils.exp
 0002:00004da4       $N00004                    791f3da4     citkUtils.exp
 0002:00004dbc       $N00005                    791f3dbc     citkUtils.exp
 0002:00004dd7       $N00006                    791f3dd7     citkUtils.exp
 0002:00004df4       $N00007                    791f3df4     citkUtils.exp
 0002:00004e14       $N00008                    791f3e14     citkUtils.exp
 0002:00004e2c       $N00009                    791f3e2c     citkUtils.exp
 0002:00004e46       $N00010                    791f3e46     citkUtils.exp
 0002:00004e5b       $N00011                    791f3e5b     citkUtils.exp
 0002:00004e78       $N00012                    791f3e78     citkUtils.exp
 0002:00004e90       $N00013                    791f3e90     citkUtils.exp
 0002:00004eb0       $N00014                    791f3eb0     citkUtils.exp
 0002:00004ecd       $N00015                    791f3ecd     citkUtils.exp
 0002:00004ee6       $N00016                    791f3ee6     citkUtils.exp
 0002:00004efd       $N00017                    791f3efd     citkUtils.exp
 0002:00004f0f       $N00018                    791f3f0f     citkUtils.exp
 0002:00004f23       $N00019                    791f3f23     citkUtils.exp
 0002:00004f41       $N00020                    791f3f41     citkUtils.exp
 0002:00004f59       $N00021                    791f3f59     citkUtils.exp
 0002:00004f74       $N00022                    791f3f74     citkUtils.exp
 0002:00004f91       $N00023                    791f3f91     citkUtils.exp
 0002:00004fb1       $N00024                    791f3fb1     citkUtils.exp
 0002:00004fc9       $N00025                    791f3fc9     citkUtils.exp
 0002:00004fde       $N00026                    791f3fde     citkUtils.exp
 0002:00004ff6       $N00027                    791f3ff6     citkUtils.exp
 0002:00005010       $N00028                    791f4010     citkUtils.exp
 0002:00005024       $N00029                    791f4024     citkUtils.exp
 0002:00005036       $N00030                    791f4036     citkUtils.exp
 0002:00005057       $N00031                    791f4057     citkUtils.exp
 0002:0000507c       $N00032                    791f407c     citkUtils.exp
 0002:00005099       $N00033                    791f4099     citkUtils.exp
 0002:000050b6       $N00034                    791f40b6     citkUtils.exp
 0002:000050c8       $N00035                    791f40c8     citkUtils.exp
 0002:000050e4       $N00036                    791f40e4     citkUtils.exp
 0002:000050fa       $N00037                    791f40fa     citkUtils.exp
 0002:00005113       $N00038                    791f4113     citkUtils.exp
 0002:0000512e       $N00039                    791f412e     citkUtils.exp
 0002:0000514c       $N00040                    791f414c     citkUtils.exp
 0002:00005162       $N00041                    791f4162     citkUtils.exp
 0002:00005175       $N00042                    791f4175     citkUtils.exp
 0002:00005185       $N00043                    791f4185     citkUtils.exp
 0002:0000519a       $N00044                    791f419a     citkUtils.exp
 0002:000051bf       $N00045                    791f41bf     citkUtils.exp
 0002:000051f5       $N00046                    791f41f5     citkUtils.exp
 0002:0000521c       $N00047                    791f421c     citkUtils.exp
 0002:0000525b       $N00048                    791f425b     citkUtils.exp
 0002:0000527d       $N00049                    791f427d     citkUtils.exp
 0002:000052b4       $N00050                    791f42b4     citkUtils.exp
 0002:000052d5       $N00051                    791f42d5     citkUtils.exp
 0002:0000530b       $N00052                    791f430b     citkUtils.exp
 0002:00005354       $N00053                    791f4354     citkUtils.exp
 0002:0000536f       $N00054                    791f436f     citkUtils.exp
 0002:0000538e       $N00055                    791f438e     citkUtils.exp
 0002:000053ac       $N00056                    791f43ac     citkUtils.exp
 0002:000053c0       $N00057                    791f43c0     citkUtils.exp
 0002:000053de       $N00058                    791f43de     citkUtils.exp
 0002:000053f6       $N00059                    791f43f6     citkUtils.exp
 0002:00005411       $N00060                    791f4411     citkUtils.exp
 0002:0000542e       $N00061                    791f442e     citkUtils.exp
 0002:00005449       $N00062                    791f4449     citkUtils.exp
 0002:00005461       $N00063                    791f4461     citkUtils.exp
 0002:00005476       $N00064                    791f4476     citkUtils.exp
 0002:00005488       $N00065                    791f4488     citkUtils.exp
 0002:000054ab       $N00066                    791f44ab     citkUtils.exp
 0002:000054d0       $N00067                    791f44d0     citkUtils.exp
 0002:000054f7       $N00068                    791f44f7     citkUtils.exp
 0002:0000551b       $N00069                    791f451b     citkUtils.exp
 0002:00005544       $N00070                    791f4544     citkUtils.exp
 0002:0000556a       $N00071                    791f456a     citkUtils.exp
 0002:00005589       $N00072                    791f4589     citkUtils.exp
 0002:000055b1       $N00073                    791f45b1     citkUtils.exp
 0002:000055da       $N00074                    791f45da     citkUtils.exp
 0002:0000562a       $N00075                    791f462a     citkUtils.exp
 0002:0000564e       $N00076                    791f464e     citkUtils.exp
 0002:00005672       $N00077                    791f4672     citkUtils.exp
 0002:00005698       $N00078                    791f4698     citkUtils.exp
 0002:000056c4       $N00079                    791f46c4     citkUtils.exp
 0002:000056f2       $N00080                    791f46f2     citkUtils.exp
 0002:00005714       $N00081                    791f4714     citkUtils.exp
 0002:00005754       $N00082                    791f4754     citkUtils.exp
 0002:0000578b       $N00083                    791f478b     citkUtils.exp
 0002:000057bd       $N00084                    791f47bd     citkUtils.exp
 0002:000057f6       $N00085                    791f47f6     citkUtils.exp
 0002:00005832       $N00086                    791f4832     citkUtils.exp
 0002:0000585c       $N00087                    791f485c     citkUtils.exp
 0002:00005890       $N00088                    791f4890     citkUtils.exp
 0002:000058be       $N00089                    791f48be     citkUtils.exp
 0002:000058ef       $N00090                    791f48ef     citkUtils.exp
 0002:00005922       $N00091                    791f4922     citkUtils.exp
 0002:00005954       $N00092                    791f4954     citkUtils.exp
 0002:00005982       $N00093                    791f4982     citkUtils.exp
 0002:000059ad       $N00094                    791f49ad     citkUtils.exp
 0002:000059d5       $N00095                    791f49d5     citkUtils.exp
 0002:00005a0c       $N00096                    791f4a0c     citkUtils.exp
 0002:00005a3c       $N00097                    791f4a3c     citkUtils.exp
 0002:00005a76       $N00098                    791f4a76     citkUtils.exp
 0002:00005aaa       $N00099                    791f4aaa     citkUtils.exp
 0002:00005ae1       $N00100                    791f4ae1     citkUtils.exp
 0002:00005b1a       $N00101                    791f4b1a     citkUtils.exp
 0002:00005b51       $N00102                    791f4b51     citkUtils.exp
 0002:00005b85       $N00103                    791f4b85     citkUtils.exp
 0002:00005bb6       $N00104                    791f4bb6     citkUtils.exp
 0002:00005be4       $N00105                    791f4be4     citkUtils.exp
 0002:00005c18       $N00106                    791f4c18     citkUtils.exp
 0002:00005c6f       $N00107                    791f4c6f     citkUtils.exp
 0002:00005c9e       $N00108                    791f4c9e     citkUtils.exp
 0002:00005cb9       $N00109                    791f4cb9     citkUtils.exp
 0002:00005ce9       $N00110                    791f4ce9     citkUtils.exp
 0002:00005d06       $N00111                    791f4d06     citkUtils.exp
 0002:00005d39       $N00112                    791f4d39     citkUtils.exp
 0002:00005d67       $N00113                    791f4d67     citkUtils.exp
 0002:00005d8b       $N00114                    791f4d8b     citkUtils.exp
 0002:00005dd7       $N00115                    791f4dd7     citkUtils.exp
 0002:00005e0f       $N00116                    791f4e0f     citkUtils.exp
 0002:00005e3e       $N00117                    791f4e3e     citkUtils.exp
 0002:00005e5f       $N00118                    791f4e5f     citkUtils.exp
 0002:00005e91       $N00119                    791f4e91     citkUtils.exp
 0002:00005eb4       $N00120                    791f4eb4     citkUtils.exp
 0002:00005ed3       $N00121                    791f4ed3     citkUtils.exp
 0002:00005f09       $N00122                    791f4f09     citkUtils.exp
 0002:00005f3a       $N00123                    791f4f3a     citkUtils.exp
 0002:00005f6f       $N00124                    791f4f6f     citkUtils.exp
 0002:00005fa1       $N00125                    791f4fa1     citkUtils.exp
 0002:00005fd0       $N00126                    791f4fd0     citkUtils.exp
 0002:0000600b       $N00127                    791f500b     citkUtils.exp
 0002:0000602a       $N00128                    791f502a     citkUtils.exp
 0002:00006053       $N00129                    791f5053     citkUtils.exp
 0002:00006077       $N00130                    791f5077     citkUtils.exp
 0002:000060a9       $N00131                    791f50a9     citkUtils.exp
 0002:000060f3       $N00132                    791f50f3     citkUtils.exp
 0002:0000611d       $N00133                    791f511d     citkUtils.exp
 0002:0000613d       $N00134                    791f513d     citkUtils.exp
 0002:00006169       $N00135                    791f5169     citkUtils.exp
 0002:00006188       $N00136                    791f5188     citkUtils.exp
 0002:000061d6       $N00137                    791f51d6     citkUtils.exp
 0002:000061fe       $N00138                    791f51fe     citkUtils.exp
 0002:0000621c       $N00139                    791f521c     citkUtils.exp
 0002:00006259       $N00140                    791f5259     citkUtils.exp
 0002:00006270       $N00141                    791f5270     citkUtils.exp
 0002:00006290       $N00142                    791f5290     citkUtils.exp
 0002:000062ae       $N00143                    791f52ae     citkUtils.exp
 0002:000062cd       $N00144                    791f52cd     citkUtils.exp
 0002:00006318       $N00145                    791f5318     citkUtils.exp
 0002:00006362       $N00146                    791f5362     citkUtils.exp
 0002:00006382       $N00147                    791f5382     citkUtils.exp
 0002:000063ce       $N00148                    791f53ce     citkUtils.exp
 0002:000063f1       $N00149                    791f53f1     citkUtils.exp
 0002:0000640c       $N00150                    791f540c     citkUtils.exp
 0002:00006428       $N00151                    791f5428     citkUtils.exp
 0002:00006473       $N00152                    791f5473     citkUtils.exp
 0002:000064bd       $N00153                    791f54bd     citkUtils.exp
 0002:000064f8       $N00154                    791f54f8     citkUtils.exp
 0002:0000652f       $N00155                    791f552f     citkUtils.exp
 0002:00006556       $N00156                    791f5556     citkUtils.exp
 0002:00006587       $N00157                    791f5587     citkUtils.exp
 0002:000065b2       $N00158                    791f55b2     citkUtils.exp
 0002:000065e0       $N00159                    791f55e0     citkUtils.exp
 0002:00006610       $N00160                    791f5610     citkUtils.exp
 0002:0000663f       $N00161                    791f563f     citkUtils.exp
 0002:0000666a       $N00162                    791f566a     citkUtils.exp
 0002:00006692       $N00163                    791f5692     citkUtils.exp
 0002:000066b7       $N00164                    791f56b7     citkUtils.exp
 0002:000066ff       $N00165                    791f56ff     citkUtils.exp
 0002:00006f0c       .idata$6                   791f5f0c     kernel32:KERNEL32.dll
 0002:00006f36       .idata$6                   791f5f36     user32:USER32.dll
 0002:0000b57e       .idata$6                   791fa57e     citkcore:citkCore.dll
 0002:0000b666       .idata$6                   791fa666     vcruntime:VCRUNTIME140.dll
 0002:0000b812       .idata$6                   791fa812     ucrt:api-ms-win-crt-heap-l1-1-0.dll
 0002:0000b832       .idata$6                   791fa832     ucrt:api-ms-win-crt-multibyte-l1-1-0.dll
 0002:0000b856       .idata$6                   791fa856     ucrt:api-ms-win-crt-convert-l1-1-0.dll
 0002:0000b878       .idata$6                   791fa878     ucrt:api-ms-win-crt-stdio-l1-1-0.dll
 0002:0000b898       .idata$6                   791fa898     ucrt:api-ms-win-crt-utility-l1-1-0.dll
 0002:0000b8ba       .idata$6                   791fa8ba     ucrt:api-ms-win-crt-string-l1-1-0.dll
 0002:0000b8dc       .idata$6                   791fa8dc     ucrt:api-ms-win-crt-runtime-l1-1-0.dll
 0003:00000060       ?stek@?1??Process@IVPleh@@UAEXAAUProcessInfo_t@citk@@@Z@4V?$ArrayPtr@VCTEntity@citk@@@citkTypes@@A 791fb060     citk_Volumes.obj
 0003:00000ad8       ?module_local_atexit_table@@3U_onexit_table_t@@A 791fbad8     MSVCRT:utility.obj
 0003:00000ae4       ?module_local_at_quick_exit_table@@3U_onexit_table_t@@A 791fbae4     MSVCRT:utility.obj
 0003:00000af0       ?module_local_atexit_table_initialized@@3_NA 791fbaf0     MSVCRT:utility.obj
 0003:00000af1       ?is_initialized_as_dll@@3_NA 791fbaf1     MSVCRT:utility.obj
 0003:00000af4       ?_Tss_mutex@@3U_RTL_CRITICAL_SECTION@@A 791fbaf4     MSVCRT:thread_safe_statics.obj
 0003:00000b0c       ?_Tss_cv@@3U_RTL_CONDITION_VARIABLE@@A 791fbb0c     MSVCRT:thread_safe_statics.obj
 0003:00000b10       ?_Tss_event@@3PAXA         791fbb10     MSVCRT:thread_safe_statics.obj
 0003:00000b14       ?encoded_sleep_condition_variable_cs@@3P6GHPAU_RTL_CONDITION_VARIABLE@@PAU_RTL_CRITICAL_SECTION@@K@ZA 791fbb14     MSVCRT:thread_safe_statics.obj
 0003:00000b18       ?encoded_wake_all_condition_variable@@3P6GXPAU_RTL_CONDITION_VARIABLE@@@ZA 791fbb18     MSVCRT:thread_safe_statics.obj
 0003:00000b1c       ?__proc_attached@@3HA      791fbb1c     MSVCRT:dll_dllmain.obj
 0003:00000b38       _GS_ExceptionRecord        791fbb38     MSVCRT:gs_report.obj
 0003:00000b88       _GS_ContextRecord          791fbb88     MSVCRT:gs_report.obj
 0003:00000e6c       ?__citk_plugin@@3VcitkUtils@@A 791fbe6c     citkUtils.obj
 0003:00001158       ?$TSS0@?1??Process@IVPleh@@UAEXAAUProcessInfo_t@citk@@@Z@4HA 791fc158     citk_Volumes.obj
 0004:00000060       $R000000                   791fd060     * linker generated manifest res *
